ccopy_reg
_reconstructor
p1
(cmatplotlib.font_manager
FontManager
p2
c__builtin__
object
p3
NtRp4
(dp5
S'ttflist'
p6
(lp7
g1
(cmatplotlib.font_manager
FontEntry
p8
g3
NtRp9
(dp10
S'style'
p11
Vnormal
p12
sS'name'
p13
Vcmss10
p14
sS'weight'
p15
I400
sS'stretch'
p16
g12
sS'variant'
p17
g12
sS'fname'
p18
V/home/nils/Arbeit/seaborn/lib/python2.7/site-packages/matplotlib/mpl-data/fonts/ttf/cmss10.ttf
p19
sS'size'
p20
Vscalable
p21
sbag1
(g8
g3
NtRp22
(dp23
g11
Vitalic
p24
sg13
VSTIXGeneral
p25
sg15
I700
sg16
g12
sg17
g12
sg18
V/home/nils/Arbeit/seaborn/lib/python2.7/site-packages/matplotlib/mpl-data/fonts/ttf/STIXGeneralBolIta.ttf
p26
sg20
g21
sbag1
(g8
g3
NtRp27
(dp28
g11
g12
sg13
Vcmb10
p29
sg15
I400
sg16
g12
sg17
g12
sg18
V/home/nils/Arbeit/seaborn/lib/python2.7/site-packages/matplotlib/mpl-data/fonts/ttf/cmb10.ttf
p30
sg20
g21
sbag1
(g8
g3
NtRp31
(dp32
g11
g12
sg13
VBitstream Vera Sans
p33
sg15
I400
sg16
g12
sg17
g12
sg18
V/home/nils/Arbeit/seaborn/lib/python2.7/site-packages/matplotlib/mpl-data/fonts/ttf/Vera.ttf
p34
sg20
g21
sbag1
(g8
g3
NtRp35
(dp36
g11
Voblique
p37
sg13
VBitstream Vera Sans Mono
p38
sg15
I700
sg16
g12
sg17
g12
sg18
V/home/nils/Arbeit/seaborn/lib/python2.7/site-packages/matplotlib/mpl-data/fonts/ttf/VeraMoBI.ttf
p39
sg20
g21
sbag1
(g8
g3
NtRp40
(dp41
g11
g12
sg13
VBitstream Vera Serif
p42
sg15
I400
sg16
g12
sg17
g12
sg18
V/home/nils/Arbeit/seaborn/lib/python2.7/site-packages/matplotlib/mpl-data/fonts/ttf/VeraSe.ttf
p43
sg20
g21
sbag1
(g8
g3
NtRp44
(dp45
g11
g24
sg13
VSTIXGeneral
p46
sg15
I400
sg16
g12
sg17
g12
sg18
V/home/nils/Arbeit/seaborn/lib/python2.7/site-packages/matplotlib/mpl-data/fonts/ttf/STIXGeneralItalic.ttf
p47
sg20
g21
sbag1
(g8
g3
NtRp48
(dp49
g11
g12
sg13
Vcmtt10
p50
sg15
I400
sg16
g12
sg17
g12
sg18
V/home/nils/Arbeit/seaborn/lib/python2.7/site-packages/matplotlib/mpl-data/fonts/ttf/cmtt10.ttf
p51
sg20
g21
sbag1
(g8
g3
NtRp52
(dp53
g11
g12
sg13
Vcmex10
p54
sg15
I400
sg16
g12
sg17
g12
sg18
V/home/nils/Arbeit/seaborn/lib/python2.7/site-packages/matplotlib/mpl-data/fonts/ttf/cmex10.ttf
p55
sg20
g21
sbag1
(g8
g3
NtRp56
(dp57
g11
g12
sg13
VSTIXSizeThreeSym
p58
sg15
I400
sg16
g12
sg17
g12
sg18
V/home/nils/Arbeit/seaborn/lib/python2.7/site-packages/matplotlib/mpl-data/fonts/ttf/STIXSizThreeSymReg.ttf
p59
sg20
g21
sbag1
(g8
g3
NtRp60
(dp61
g11
g12
sg13
VBitstream Vera Sans Mono
p62
sg15
I700
sg16
g12
sg17
g12
sg18
V/home/nils/Arbeit/seaborn/lib/python2.7/site-packages/matplotlib/mpl-data/fonts/ttf/VeraMoBd.ttf
p63
sg20
g21
sbag1
(g8
g3
NtRp64
(dp65
g11
g12
sg13
VSTIXSizeFourSym
p66
sg15
I400
sg16
g12
sg17
g12
sg18
V/home/nils/Arbeit/seaborn/lib/python2.7/site-packages/matplotlib/mpl-data/fonts/ttf/STIXSizFourSymReg.ttf
p67
sg20
g21
sbag1
(g8
g3
NtRp68
(dp69
g11
g37
sg13
VBitstream Vera Sans
p70
sg15
I700
sg16
g12
sg17
g12
sg18
V/home/nils/Arbeit/seaborn/lib/python2.7/site-packages/matplotlib/mpl-data/fonts/ttf/VeraBI.ttf
p71
sg20
g21
sbag1
(g8
g3
NtRp72
(dp73
g11
g12
sg13
VSTIXSizeFiveSym
p74
sg15
I400
sg16
g12
sg17
g12
sg18
V/home/nils/Arbeit/seaborn/lib/python2.7/site-packages/matplotlib/mpl-data/fonts/ttf/STIXSizFiveSymReg.ttf
p75
sg20
g21
sbag1
(g8
g3
NtRp76
(dp77
g11
g12
sg13
VBitstream Vera Sans Mono
p78
sg15
I400
sg16
g12
sg17
g12
sg18
V/home/nils/Arbeit/seaborn/lib/python2.7/site-packages/matplotlib/mpl-data/fonts/ttf/VeraMono.ttf
p79
sg20
g21
sbag1
(g8
g3
NtRp80
(dp81
g11
g12
sg13
VSTIXSizeThreeSym
p82
sg15
I700
sg16
g12
sg17
g12
sg18
V/home/nils/Arbeit/seaborn/lib/python2.7/site-packages/matplotlib/mpl-data/fonts/ttf/STIXSizThreeSymBol.ttf
p83
sg20
g21
sbag1
(g8
g3
NtRp84
(dp85
g11
g12
sg13
VSTIXSizeTwoSym
p86
sg15
I700
sg16
g12
sg17
g12
sg18
V/home/nils/Arbeit/seaborn/lib/python2.7/site-packages/matplotlib/mpl-data/fonts/ttf/STIXSizTwoSymBol.ttf
p87
sg20
g21
sbag1
(g8
g3
NtRp88
(dp89
g11
g12
sg13
Vcmmi10
p90
sg15
I400
sg16
g12
sg17
g12
sg18
V/home/nils/Arbeit/seaborn/lib/python2.7/site-packages/matplotlib/mpl-data/fonts/ttf/cmmi10.ttf
p91
sg20
g21
sbag1
(g8
g3
NtRp92
(dp93
g11
g12
sg13
VBitstream Vera Serif
p94
sg15
I700
sg16
g12
sg17
g12
sg18
V/home/nils/Arbeit/seaborn/lib/python2.7/site-packages/matplotlib/mpl-data/fonts/ttf/VeraSeBd.ttf
p95
sg20
g21
sbag1
(g8
g3
NtRp96
(dp97
g11
g12
sg13
VSTIXNonUnicode
p98
sg15
I400
sg16
g12
sg17
g12
sg18
V/home/nils/Arbeit/seaborn/lib/python2.7/site-packages/matplotlib/mpl-data/fonts/ttf/STIXNonUni.ttf
p99
sg20
g21
sbag1
(g8
g3
NtRp100
(dp101
g11
g12
sg13
Vcmr10
p102
sg15
I400
sg16
g12
sg17
g12
sg18
V/home/nils/Arbeit/seaborn/lib/python2.7/site-packages/matplotlib/mpl-data/fonts/ttf/cmr10.ttf
p103
sg20
g21
sbag1
(g8
g3
NtRp104
(dp105
g11
g37
sg13
VBitstream Vera Sans Mono
p106
sg15
I400
sg16
g12
sg17
g12
sg18
V/home/nils/Arbeit/seaborn/lib/python2.7/site-packages/matplotlib/mpl-data/fonts/ttf/VeraMoIt.ttf
p107
sg20
g21
sbag1
(g8
g3
NtRp108
(dp109
g11
g12
sg13
VSTIXSizeFourSym
p110
sg15
I700
sg16
g12
sg17
g12
sg18
V/home/nils/Arbeit/seaborn/lib/python2.7/site-packages/matplotlib/mpl-data/fonts/ttf/STIXSizFourSymBol.ttf
p111
sg20
g21
sbag1
(g8
g3
NtRp112
(dp113
g11
g37
sg13
VBitstream Vera Sans
p114
sg15
I400
sg16
g12
sg17
g12
sg18
V/home/nils/Arbeit/seaborn/lib/python2.7/site-packages/matplotlib/mpl-data/fonts/ttf/VeraIt.ttf
p115
sg20
g21
sbag1
(g8
g3
NtRp116
(dp117
g11
g12
sg13
VSTIXGeneral
p118
sg15
I400
sg16
g12
sg17
g12
sg18
V/home/nils/Arbeit/seaborn/lib/python2.7/site-packages/matplotlib/mpl-data/fonts/ttf/STIXGeneral.ttf
p119
sg20
g21
sbag1
(g8
g3
NtRp120
(dp121
g11
g12
sg13
VSTIXGeneral
p122
sg15
I700
sg16
g12
sg17
g12
sg18
V/home/nils/Arbeit/seaborn/lib/python2.7/site-packages/matplotlib/mpl-data/fonts/ttf/STIXGeneralBol.ttf
p123
sg20
g21
sbag1
(g8
g3
NtRp124
(dp125
g11
g12
sg13
VSTIXSizeTwoSym
p126
sg15
I400
sg16
g12
sg17
g12
sg18
V/home/nils/Arbeit/seaborn/lib/python2.7/site-packages/matplotlib/mpl-data/fonts/ttf/STIXSizTwoSymReg.ttf
p127
sg20
g21
sbag1
(g8
g3
NtRp128
(dp129
g11
g24
sg13
VSTIXNonUnicode
p130
sg15
I400
sg16
g12
sg17
g12
sg18
V/home/nils/Arbeit/seaborn/lib/python2.7/site-packages/matplotlib/mpl-data/fonts/ttf/STIXNonUniIta.ttf
p131
sg20
g21
sbag1
(g8
g3
NtRp132
(dp133
g11
g12
sg13
VSTIXNonUnicode
p134
sg15
I700
sg16
g12
sg17
g12
sg18
V/home/nils/Arbeit/seaborn/lib/python2.7/site-packages/matplotlib/mpl-data/fonts/ttf/STIXNonUniBol.ttf
p135
sg20
g21
sbag1
(g8
g3
NtRp136
(dp137
g11
g12
sg13
VBitstream Vera Sans
p138
sg15
I700
sg16
g12
sg17
g12
sg18
V/home/nils/Arbeit/seaborn/lib/python2.7/site-packages/matplotlib/mpl-data/fonts/ttf/VeraBd.ttf
p139
sg20
g21
sbag1
(g8
g3
NtRp140
(dp141
g11
g12
sg13
VSTIXSizeOneSym
p142
sg15
I400
sg16
g12
sg17
g12
sg18
V/home/nils/Arbeit/seaborn/lib/python2.7/site-packages/matplotlib/mpl-data/fonts/ttf/STIXSizOneSymReg.ttf
p143
sg20
g21
sbag1
(g8
g3
NtRp144
(dp145
g11
g12
sg13
VSTIXSizeOneSym
p146
sg15
I700
sg16
g12
sg17
g12
sg18
V/home/nils/Arbeit/seaborn/lib/python2.7/site-packages/matplotlib/mpl-data/fonts/ttf/STIXSizOneSymBol.ttf
p147
sg20
g21
sbag1
(g8
g3
NtRp148
(dp149
g11
g24
sg13
VSTIXNonUnicode
p150
sg15
I700
sg16
g12
sg17
g12
sg18
V/home/nils/Arbeit/seaborn/lib/python2.7/site-packages/matplotlib/mpl-data/fonts/ttf/STIXNonUniBolIta.ttf
p151
sg20
g21
sbag1
(g8
g3
NtRp152
(dp153
g11
g12
sg13
Vcmsy10
p154
sg15
I400
sg16
g12
sg17
g12
sg18
V/home/nils/Arbeit/seaborn/lib/python2.7/site-packages/matplotlib/mpl-data/fonts/ttf/cmsy10.ttf
p155
sg20
g21
sbag1
(g8
g3
NtRp156
(dp157
g11
g12
sg13
VCantarell
p158
sg15
I700
sg16
g12
sg17
g12
sg18
V/usr/share/fonts/cantarell/Cantarell-Bold.otf
p159
sg20
g21
sbag1
(g8
g3
NtRp160
(dp161
g11
g12
sg13
VArial
p162
sg15
I400
sg16
g12
sg17
g12
sg18
V/usr/share/fonts/TTF/arial.ttf
p163
sg20
g21
sbag1
(g8
g3
NtRp164
(dp165
g11
g37
sg13
VFreeMono
p166
sg15
I400
sg16
g12
sg17
g12
sg18
V/usr/share/fonts/TTF/FreeMonoOblique.ttf
p167
sg20
g21
sbag1
(g8
g3
NtRp168
(dp169
g11
g12
sg13
VSerto Batnan
p170
sg15
I400
sg16
g12
sg17
g12
sg18
V/usr/share/fonts/OTF/SyrCOMBatnan.otf
p171
sg20
g21
sbag1
(g8
g3
NtRp172
(dp173
g11
g12
sg13
VDejaVu Serif
p174
sg15
I400
sg16
g12
sg17
g12
sg18
V/usr/share/fonts/TTF/DejaVuSerif.ttf
p175
sg20
g21
sbag1
(g8
g3
NtRp176
(dp177
g11
g24
sg13
VUbuntu
p178
sg15
I200
sg16
g12
sg17
g12
sg18
V/usr/share/fonts/TTF/Ubuntu-LI.ttf
p179
sg20
g21
sbag1
(g8
g3
NtRp180
(dp181
g11
g12
sg13
VInconsolata
p182
sg15
I700
sg16
g12
sg17
g12
sg18
V/usr/share/fonts/TTF/Inconsolata-Bold.ttf
p183
sg20
g21
sbag1
(g8
g3
NtRp184
(dp185
g11
g12
sg13
VChildren Once Where
p186
sg15
I400
sg16
g12
sg17
g12
sg18
V/home/nils/.fonts/children_once_were.ttf
p187
sg20
g21
sbag1
(g8
g3
NtRp188
(dp189
g11
g24
sg13
VMetaSerifTf-BoldIta
p190
sg15
I700
sg16
g12
sg17
g12
sg18
V/home/nils/.fonts/MetaSerifTf-BoldIta.otf
p191
sg20
g21
sbag1
(g8
g3
NtRp192
(dp193
g11
g12
sg13
VEstrangelo Nisibin Outline
p194
sg15
I400
sg16
g12
sg17
g12
sg18
V/usr/share/fonts/OTF/SyrCOMNisibinOutline.otf
p195
sg20
g21
sbag1
(g8
g3
NtRp196
(dp197
g11
g12
sg13
VUbuntu
p198
sg15
I400
sg16
g12
sg17
g12
sg18
V/usr/share/fonts/TTF/Ubuntu-R.ttf
p199
sg20
g21
sbag1
(g8
g3
NtRp200
(dp201
g11
g12
sg13
VFreeSans
p202
sg15
I400
sg16
g12
sg17
g12
sg18
V/usr/share/fonts/TTF/FreeSans.ttf
p203
sg20
g21
sbag1
(g8
g3
NtRp204
(dp205
g11
g12
sg13
VSerto Mardin
p206
sg15
I400
sg16
g12
sg17
g12
sg18
V/usr/share/fonts/OTF/SyrCOMMardin.otf
p207
sg20
g21
sbag1
(g8
g3
NtRp208
(dp209
g11
g24
sg13
VMetaSerifSc-BookIta
p210
sg15
I400
sg16
g12
sg17
g12
sg18
V/home/nils/.fonts/MetaSerifSc-BookIta.otf
p211
sg20
g21
sbag1
(g8
g3
NtRp212
(dp213
g11
g12
sg13
VVerdana
p214
sg15
I700
sg16
g12
sg17
g12
sg18
V/usr/share/fonts/TTF/verdanab.ttf
p215
sg20
g21
sbag1
(g8
g3
NtRp216
(dp217
g11
g24
sg13
VMeta
p218
sg15
I900
sg16
g12
sg17
g12
sg18
V/home/nils/.fonts/MetaBlackLf-Italic.otf
p219
sg20
g21
sbag1
(g8
g3
NtRp220
(dp221
g11
g24
sg13
VMeta
p222
sg15
I400
sg16
g12
sg17
g12
sg18
V/home/nils/.fonts/MetaNormal-ItalicCaps.otf
p223
sg20
g21
sbag1
(g8
g3
NtRp224
(dp225
g11
g24
sg13
VArial
p226
sg15
I400
sg16
g12
sg17
g12
sg18
V/usr/share/fonts/TTF/ariali.ttf
p227
sg20
g21
sbag1
(g8
g3
NtRp228
(dp229
g11
g12
sg13
VSource Serif Pro
p230
sg15
I700
sg16
g12
sg17
g12
sg18
V/usr/share/fonts/adobe-source-serif-pro/SourceSerifPro-Bold.otf
p231
sg20
g21
sbag1
(g8
g3
NtRp232
(dp233
g11
g12
sg13
VDejaVu Serif
p234
sg15
I700
sg16
g12
sg17
g12
sg18
V/usr/share/fonts/TTF/DejaVuSerif-Bold.ttf
p235
sg20
g21
sbag1
(g8
g3
NtRp236
(dp237
g11
g12
sg13
VMeta
p238
sg15
I900
sg16
g12
sg17
g12
sg18
V/home/nils/.fonts/MetaBlack-Caps.otf
p239
sg20
g21
sbag1
(g8
g3
NtRp240
(dp241
g11
g12
sg13
VURW Gothic
p242
sg15
I400
sg16
g12
sg17
g12
sg18
V/usr/share/fonts/OTF/URWGothic-Book.otf
p243
sg20
g21
sbag1
(g8
g3
NtRp244
(dp245
g11
g12
sg13
VDejaVu Serif
p246
sg15
I400
sg16
Vcondensed
p247
sg17
g12
sg18
V/usr/share/fonts/TTF/DejaVuSerifCondensed.ttf
p248
sg20
g21
sbag1
(g8
g3
NtRp249
(dp250
g11
g12
sg13
VSource Sans Pro
p251
sg15
I400
sg16
g12
sg17
g12
sg18
V/usr/share/fonts/adobe-source-sans-pro/SourceSansPro-Regular.otf
p252
sg20
g21
sbag1
(g8
g3
NtRp253
(dp254
g11
g12
sg13
VTrebuchet MS
p255
sg15
I400
sg16
g12
sg17
g12
sg18
V/usr/share/fonts/TTF/trebuc.ttf
p256
sg20
g21
sbag1
(g8
g3
NtRp257
(dp258
g11
g24
sg13
VMeta
p259
sg15
I700
sg16
g12
sg17
g12
sg18
V/home/nils/.fonts/MetaBoldLf-Italic.otf
p260
sg20
g21
sbag1
(g8
g3
NtRp261
(dp262
g11
g24
sg13
VCandara
p263
sg15
I400
sg16
g12
sg17
g12
sg18
V/usr/share/fonts/TTF/candarai.ttf
p264
sg20
g21
sbag1
(g8
g3
NtRp265
(dp266
g11
g12
sg13
VNimbus Sans Narrow
p267
sg15
I700
sg16
g247
sg17
g12
sg18
V/usr/share/fonts/OTF/NimbusSansNarrow-Bold.otf
p268
sg20
g21
sbag1
(g8
g3
NtRp269
(dp270
g11
g12
sg13
VMeta
p271
sg15
I400
sg16
g12
sg17
g12
sg18
V/home/nils/.fonts/MetaBookLF-Caps.otf
p272
sg20
g21
sbag1
(g8
g3
NtRp273
(dp274
g11
g12
sg13
VNimbus Sans Narrow
p275
sg15
I400
sg16
g247
sg17
g12
sg18
V/usr/share/fonts/OTF/NimbusSansNarrow-Regular.otf
p276
sg20
g21
sbag1
(g8
g3
NtRp277
(dp278
g11
g24
sg13
VVerdana
p279
sg15
I400
sg16
g12
sg17
g12
sg18
V/usr/share/fonts/TTF/verdanai.ttf
p280
sg20
g21
sbag1
(g8
g3
NtRp281
(dp282
g11
g12
sg13
VSource Sans Pro
p283
sg15
I900
sg16
g12
sg17
g12
sg18
V/usr/share/fonts/adobe-source-sans-pro/SourceSansPro-Black.otf
p284
sg20
g21
sbag1
(g8
g3
NtRp285
(dp286
g11
g24
sg13
VMeta
p287
sg15
I400
sg16
g12
sg17
g12
sg18
V/home/nils/.fonts/MetaNormal-Italic.otf
p288
sg20
g21
sbag1
(g8
g3
NtRp289
(dp290
g11
g12
sg13
VVilla Didot
p291
sg15
I400
sg16
g12
sg17
g12
sg18
V/home/nils/.fonts/villa_didot.otf
p292
sg20
g21
sbag1
(g8
g3
NtRp293
(dp294
g11
g12
sg13
VVilla Didot
p295
sg15
I400
sg16
g12
sg17
g12
sg18
V/home/nils/.fonts/villa_didot_outline.otf
p296
sg20
g21
sbag1
(g8
g3
NtRp297
(dp298
g11
g12
sg13
VLiberation Sans
p299
sg15
I700
sg16
g12
sg17
g12
sg18
V/usr/share/fonts/TTF/LiberationSans-Bold.ttf
p300
sg20
g21
sbag1
(g8
g3
NtRp301
(dp302
g11
g24
sg13
VMeta
p303
sg15
I400
sg16
g12
sg17
g12
sg18
V/home/nils/.fonts/MetaNormalLF-ItalicCaps.otf
p304
sg20
g21
sbag1
(g8
g3
NtRp305
(dp306
g11
g12
sg13
VArial
p307
sg15
I700
sg16
g12
sg17
g12
sg18
V/usr/share/fonts/TTF/arialbd.ttf
p308
sg20
g21
sbag1
(g8
g3
NtRp309
(dp310
g11
g12
sg13
VGeorgia
p311
sg15
I400
sg16
g12
sg17
g12
sg18
V/usr/share/fonts/TTF/georgia.ttf
p312
sg20
g21
sbag1
(g8
g3
NtRp313
(dp314
g11
g12
sg13
VDejaVu Serif
p315
sg15
I700
sg16
g247
sg17
g12
sg18
V/usr/share/fonts/TTF/DejaVuSerifCondensed-Bold.ttf
p316
sg20
g21
sbag1
(g8
g3
NtRp317
(dp318
g11
g37
sg13
VFreeSans
p319
sg15
I400
sg16
g12
sg17
g12
sg18
V/usr/share/fonts/TTF/FreeSansOblique.ttf
p320
sg20
g21
sbag1
(g8
g3
NtRp321
(dp322
g11
g12
sg13
VFira Mono
p323
sg15
I500
sg16
g12
sg17
g12
sg18
V/usr/share/fonts/TTF/FiraMono-Medium.ttf
p324
sg20
g21
sbag1
(g8
g3
NtRp325
(dp326
g11
g12
sg13
VCambria
p327
sg15
I700
sg16
g12
sg17
g12
sg18
V/usr/share/fonts/TTF/cambriab.ttf
p328
sg20
g21
sbag1
(g8
g3
NtRp329
(dp330
g11
g12
sg13
VCambria
p331
sg15
I400
sg16
g12
sg17
g12
sg18
V/usr/share/fonts/TTF/cambria.ttf
p332
sg20
g21
sbag1
(g8
g3
NtRp333
(dp334
g11
g24
sg13
VConstantia
p335
sg15
I400
sg16
g12
sg17
g12
sg18
V/usr/share/fonts/TTF/constani.ttf
p336
sg20
g21
sbag1
(g8
g3
NtRp337
(dp338
g11
g12
sg13
VP052
p339
sg15
I500
sg16
g12
sg17
g12
sg18
V/usr/share/fonts/OTF/P052-Roman.otf
p340
sg20
g21
sbag1
(g8
g3
NtRp341
(dp342
g11
g12
sg13
VMeta
p343
sg15
I400
sg16
g12
sg17
g12
sg18
V/home/nils/.fonts/MetaBook-Caps.otf
p344
sg20
g21
sbag1
(g8
g3
NtRp345
(dp346
g11
g37
sg13
VCantarell
p347
sg15
I700
sg16
g12
sg17
g12
sg18
V/usr/share/fonts/cantarell/Cantarell-BoldOblique.otf
p348
sg20
g21
sbag1
(g8
g3
NtRp349
(dp350
g11
g24
sg13
VGeorgia
p351
sg15
I400
sg16
g12
sg17
g12
sg18
V/usr/share/fonts/TTF/georgiai.ttf
p352
sg20
g21
sbag1
(g8
g3
NtRp353
(dp354
g11
g24
sg13
VMeta
p355
sg15
I900
sg16
g12
sg17
g12
sg18
V/home/nils/.fonts/MetaBlack-Italic.otf
p356
sg20
g21
sbag1
(g8
g3
NtRp357
(dp358
g11
g37
sg13
VDejaVu Sans
p359
sg15
I700
sg16
g247
sg17
g12
sg18
V/usr/share/fonts/TTF/DejaVuSansCondensed-BoldOblique.ttf
p360
sg20
g21
sbag1
(g8
g3
NtRp361
(dp362
g11
g12
sg13
VEstrangelo Quenneshrin
p363
sg15
I400
sg16
g12
sg17
g12
sg18
V/usr/share/fonts/OTF/SyrCOMQenNeshrin.otf
p364
sg20
g21
sbag1
(g8
g3
NtRp365
(dp366
g11
g12
sg13
VUbuntu Condensed
p367
sg15
I400
sg16
g247
sg17
g12
sg18
V/usr/share/fonts/TTF/Ubuntu-C.ttf
p368
sg20
g21
sbag1
(g8
g3
NtRp369
(dp370
g11
g12
sg13
VMetaSerifLf-Book
p371
sg15
I400
sg16
g12
sg17
g12
sg18
V/home/nils/.fonts/MetaSerifLf-Book.otf
p372
sg20
g21
sbag1
(g8
g3
NtRp373
(dp374
g11
g24
sg13
VNimbus Mono PS
p375
sg15
I700
sg16
g12
sg17
g12
sg18
V/usr/share/fonts/OTF/NimbusMonoPS-BoldItalic.otf
p376
sg20
g21
sbag1
(g8
g3
NtRp377
(dp378
g11
g24
sg13
VMetaSerifLf-BoldIta
p379
sg15
I700
sg16
g12
sg17
g12
sg18
V/home/nils/.fonts/MetaSerifLf-BoldIta.otf
p380
sg20
g21
sbag1
(g8
g3
NtRp381
(dp382
g11
g12
sg13
VUbuntu
p383
sg15
I500
sg16
g12
sg17
g12
sg18
V/usr/share/fonts/TTF/Ubuntu-M.ttf
p384
sg20
g21
sbag1
(g8
g3
NtRp385
(dp386
g11
g12
sg13
VEstrangelo Talada
p387
sg15
I400
sg16
g12
sg17
g12
sg18
V/usr/share/fonts/OTF/SyrCOMTalada.otf
p388
sg20
g21
sbag1
(g8
g3
NtRp389
(dp390
g11
g12
sg13
VD050000L
p391
sg15
I400
sg16
g12
sg17
g12
sg18
V/usr/share/fonts/OTF/D050000L.otf
p392
sg20
g21
sbag1
(g8
g3
NtRp393
(dp394
g11
g12
sg13
VSource Sans Pro
p395
sg15
I700
sg16
g12
sg17
g12
sg18
V/usr/share/fonts/adobe-source-sans-pro/SourceSansPro-Bold.otf
p396
sg20
g21
sbag1
(g8
g3
NtRp397
(dp398
g11
g24
sg13
VSource Sans Pro
p399
sg15
I200
sg16
g12
sg17
g12
sg18
V/usr/share/fonts/adobe-source-sans-pro/SourceSansPro-LightIt.otf
p400
sg20
g21
sbag1
(g8
g3
NtRp401
(dp402
g11
g24
sg13
VDejaVu Serif
p403
sg15
I700
sg16
g12
sg17
g12
sg18
V/usr/share/fonts/TTF/DejaVuSerif-BoldItalic.ttf
p404
sg20
g21
sbag1
(g8
g3
NtRp405
(dp406
g11
g37
sg13
VDejaVu Sans
p407
sg15
I400
sg16
g12
sg17
g12
sg18
V/usr/share/fonts/TTF/DejaVuSans-Oblique.ttf
p408
sg20
g21
sbag1
(g8
g3
NtRp409
(dp410
g11
g12
sg13
VMeta
p411
sg15
I500
sg16
g12
sg17
g12
sg18
V/home/nils/.fonts/MetaBlack-Roman.otf
p412
sg20
g21
sbag1
(g8
g3
NtRp413
(dp414
g11
g24
sg13
VSource Sans Pro
p415
sg15
I900
sg16
g12
sg17
g12
sg18
V/usr/share/fonts/adobe-source-sans-pro/SourceSansPro-BlackIt.otf
p416
sg20
g21
sbag1
(g8
g3
NtRp417
(dp418
g11
g12
sg13
VComic Sans MS
p419
sg15
I400
sg16
g12
sg17
g12
sg18
V/usr/share/fonts/TTF/comic.ttf
p420
sg20
g21
sbag1
(g8
g3
NtRp421
(dp422
g11
g37
sg13
VURW Gothic
p423
sg15
I400
sg16
g12
sg17
g12
sg18
V/usr/share/fonts/OTF/URWGothic-BookOblique.otf
p424
sg20
g21
sbag1
(g8
g3
NtRp425
(dp426
g11
g12
sg13
VMeta
p427
sg15
I500
sg16
g12
sg17
g12
sg18
V/home/nils/.fonts/MetaMedium-Caps.otf
p428
sg20
g21
sbag1
(g8
g3
NtRp429
(dp430
g11
g24
sg13
VNimbus Mono PS
p431
sg15
I400
sg16
g12
sg17
g12
sg18
V/usr/share/fonts/OTF/NimbusMonoPS-Italic.otf
p432
sg20
g21
sbag1
(g8
g3
NtRp433
(dp434
g11
g12
sg13
VEstrangelo Antioch
p435
sg15
I400
sg16
g12
sg17
g12
sg18
V/usr/share/fonts/OTF/SyrCOMAntioch.otf
p436
sg20
g21
sbag1
(g8
g3
NtRp437
(dp438
g11
g24
sg13
VDejaVu Serif
p439
sg15
I400
sg16
g247
sg17
g12
sg18
V/usr/share/fonts/TTF/DejaVuSerifCondensed-Italic.ttf
p440
sg20
g21
sbag1
(g8
g3
NtRp441
(dp442
g11
g12
sg13
VComic Sans MS
p443
sg15
I700
sg16
g12
sg17
g12
sg18
V/usr/share/fonts/TTF/comicbd.ttf
p444
sg20
g21
sbag1
(g8
g3
NtRp445
(dp446
g11
g24
sg13
VMetaSerifSc-BoldIta
p447
sg15
I700
sg16
g12
sg17
g12
sg18
V/home/nils/.fonts/MetaSerifSc-BoldIta.otf
p448
sg20
g21
sbag1
(g8
g3
NtRp449
(dp450
g11
g24
sg13
VLiberation Mono
p451
sg15
I700
sg16
g12
sg17
g12
sg18
V/usr/share/fonts/TTF/LiberationMono-BoldItalic.ttf
p452
sg20
g21
sbag1
(g8
g3
NtRp453
(dp454
g11
g24
sg13
VLiberation Serif
p455
sg15
I700
sg16
g12
sg17
g12
sg18
V/usr/share/fonts/TTF/LiberationSerif-BoldItalic.ttf
p456
sg20
g21
sbag1
(g8
g3
NtRp457
(dp458
g11
g24
sg13
VUbuntu
p459
sg15
I400
sg16
g12
sg17
g12
sg18
V/usr/share/fonts/TTF/Ubuntu-RI.ttf
p460
sg20
g21
sbag1
(g8
g3
NtRp461
(dp462
g11
g37
sg13
VFreeSans
p463
sg15
I700
sg16
g12
sg17
g12
sg18
V/usr/share/fonts/TTF/FreeSansBoldOblique.ttf
p464
sg20
g21
sbag1
(g8
g3
NtRp465
(dp466
g11
g24
sg13
VMeta
p467
sg15
I500
sg16
g12
sg17
g12
sg18
V/home/nils/.fonts/MetaMediumLF-ItalicCaps.otf
p468
sg20
g21
sbag1
(g8
g3
NtRp469
(dp470
g11
g24
sg13
VURW Bookman
p471
sg15
I600
sg16
g12
sg17
g12
sg18
V/usr/share/fonts/OTF/URWBookman-DemiItalic.otf
p472
sg20
g21
sbag1
(g8
g3
NtRp473
(dp474
g11
g12
sg13
VPrelude
p475
sg15
I700
sg16
g247
sg17
g12
sg18
V/home/nils/.fonts/PreludeCondensed-Bold.ttf
p476
sg20
g21
sbag1
(g8
g3
NtRp477
(dp478
g11
g24
sg13
VURW Bookman
p479
sg15
I200
sg16
g12
sg17
g12
sg18
V/usr/share/fonts/OTF/URWBookman-LightItalic.otf
p480
sg20
g21
sbag1
(g8
g3
NtRp481
(dp482
g11
g12
sg13
VGoha-Tibeb Zemen
p483
sg15
I400
sg16
g12
sg17
g12
sg18
V/usr/share/fonts/OTF/GohaTibebZemen.otf
p484
sg20
g21
sbag1
(g8
g3
NtRp485
(dp486
g11
g12
sg13
VDINPro
p487
sg15
I700
sg16
g12
sg17
g12
sg18
V/home/nils/.fonts/DINPro-Bold.otf
p488
sg20
g21
sbag1
(g8
g3
NtRp489
(dp490
g11
g24
sg13
VMeta
p491
sg15
I400
sg16
g12
sg17
g12
sg18
V/home/nils/.fonts/MetaBookLF-Italic.otf
p492
sg20
g21
sbag1
(g8
g3
NtRp493
(dp494
g11
g12
sg13
VConstantia
p495
sg15
I700
sg16
g12
sg17
g12
sg18
V/usr/share/fonts/TTF/constanb.ttf
p496
sg20
g21
sbag1
(g8
g3
NtRp497
(dp498
g11
g37
sg13
VNimbus Sans Narrow
p499
sg15
I700
sg16
g247
sg17
g12
sg18
V/usr/share/fonts/OTF/NimbusSansNarrow-BdOblique.otf
p500
sg20
g21
sbag1
(g8
g3
NtRp501
(dp502
g11
g12
sg13
VSerto Urhoy
p503
sg15
I400
sg16
g12
sg17
g12
sg18
V/usr/share/fonts/OTF/SyrCOMUrhoy.otf
p504
sg20
g21
sbag1
(g8
g3
NtRp505
(dp506
g11
g24
sg13
VCambria
p507
sg15
I700
sg16
g12
sg17
g12
sg18
V/usr/share/fonts/TTF/cambriaz.ttf
p508
sg20
g21
sbag1
(g8
g3
NtRp509
(dp510
g11
g12
sg13
VDINPro
p511
sg15
I500
sg16
g12
sg17
g12
sg18
V/home/nils/.fonts/DINPro-Medium.otf
p512
sg20
g21
sbag1
(g8
g3
NtRp513
(dp514
g11
g24
sg13
VSource Sans Pro
p515
sg15
I400
sg16
g12
sg17
g12
sg18
V/usr/share/fonts/adobe-source-sans-pro/SourceSansPro-It.otf
p516
sg20
g21
sbag1
(g8
g3
NtRp517
(dp518
g11
g12
sg13
VSerto Jerusalem
p519
sg15
I700
sg16
g12
sg17
g12
sg18
V/usr/share/fonts/OTF/SyrCOMJerusalemBold.otf
p520
sg20
g21
sbag1
(g8
g3
NtRp521
(dp522
g11
g12
sg13
VSerto Mardin
p523
sg15
I700
sg16
g12
sg17
g12
sg18
V/usr/share/fonts/OTF/SyrCOMMardinBold.otf
p524
sg20
g21
sbag1
(g8
g3
NtRp525
(dp526
g11
g12
sg13
VSource Sans Pro
p527
sg15
I200
sg16
g12
sg17
g12
sg18
V/usr/share/fonts/adobe-source-sans-pro/SourceSansPro-Light.otf
p528
sg20
g21
sbag1
(g8
g3
NtRp529
(dp530
g11
g12
sg13
VMetaSerifSc-Book
p531
sg15
I400
sg16
g12
sg17
g12
sg18
V/home/nils/.fonts/MetaSerifSc-Book.otf
p532
sg20
g21
sbag1
(g8
g3
NtRp533
(dp534
g11
g12
sg13
VArial Black
p535
sg15
I900
sg16
g12
sg17
g12
sg18
V/usr/share/fonts/TTF/ariblk.ttf
p536
sg20
g21
sbag1
(g8
g3
NtRp537
(dp538
g11
g24
sg13
VZ003
p539
sg15
I500
sg16
g12
sg17
g12
sg18
V/usr/share/fonts/OTF/Z003-MediumItalic.otf
p540
sg20
g21
sbag1
(g8
g3
NtRp541
(dp542
g11
g24
sg13
VCandara
p543
sg15
I700
sg16
g12
sg17
g12
sg18
V/usr/share/fonts/TTF/candaraz.ttf
p544
sg20
g21
sbag1
(g8
g3
NtRp545
(dp546
g11
g12
sg13
VSource Serif Pro
p547
sg15
I400
sg16
g12
sg17
g12
sg18
V/usr/share/fonts/adobe-source-serif-pro/SourceSerifPro-Regular.otf
p548
sg20
g21
sbag1
(g8
g3
NtRp549
(dp550
g11
g12
sg13
VSerto Jerusalem
p551
sg15
I400
sg16
g12
sg17
g12
sg18
V/usr/share/fonts/OTF/SyrCOMJerusalem.otf
p552
sg20
g21
sbag1
(g8
g3
NtRp553
(dp554
g11
g24
sg13
VMetaSerifLf-BookIta
p555
sg15
I400
sg16
g12
sg17
g12
sg18
V/home/nils/.fonts/MetaSerifLf-BookIta.otf
p556
sg20
g21
sbag1
(g8
g3
NtRp557
(dp558
g11
g24
sg13
VMeta
p559
sg15
I500
sg16
g12
sg17
g12
sg18
V/home/nils/.fonts/MetaMediumLF-Italic.otf
p560
sg20
g21
sbag1
(g8
g3
NtRp561
(dp562
g11
g12
sg13
VDejaVu Sans Mono
p563
sg15
I400
sg16
g12
sg17
g12
sg18
V/usr/share/fonts/TTF/DejaVuSansMono.ttf
p564
sg20
g21
sbag1
(g8
g3
NtRp565
(dp566
g11
g12
sg13
VLiberation Sans
p567
sg15
I400
sg16
g12
sg17
g12
sg18
V/usr/share/fonts/TTF/LiberationSans-Regular.ttf
p568
sg20
g21
sbag1
(g8
g3
NtRp569
(dp570
g11
g24
sg13
VLiberation Serif
p571
sg15
I400
sg16
g12
sg17
g12
sg18
V/usr/share/fonts/TTF/LiberationSerif-Italic.ttf
p572
sg20
g21
sbag1
(g8
g3
NtRp573
(dp574
g11
g24
sg13
VLiberation Mono
p575
sg15
I400
sg16
g12
sg17
g12
sg18
V/usr/share/fonts/TTF/LiberationMono-Italic.ttf
p576
sg20
g21
sbag1
(g8
g3
NtRp577
(dp578
g11
g24
sg13
VC059
p579
sg15
I700
sg16
g12
sg17
g12
sg18
V/usr/share/fonts/OTF/C059-BdIta.otf
p580
sg20
g21
sbag1
(g8
g3
NtRp581
(dp582
g11
g12
sg13
VCandara
p583
sg15
I700
sg16
g12
sg17
g12
sg18
V/usr/share/fonts/TTF/candarab.ttf
p584
sg20
g21
sbag1
(g8
g3
NtRp585
(dp586
g11
g37
sg13
VDejaVu Sans
p587
sg15
I700
sg16
g12
sg17
g12
sg18
V/usr/share/fonts/TTF/DejaVuSans-BoldOblique.ttf
p588
sg20
g21
sbag1
(g8
g3
NtRp589
(dp590
g11
g24
sg13
VCalibri
p591
sg15
I400
sg16
g12
sg17
g12
sg18
V/usr/share/fonts/TTF/calibrii.ttf
p592
sg20
g21
sbag1
(g8
g3
NtRp593
(dp594
g11
g12
sg13
VMeta
p595
sg15
I500
sg16
g12
sg17
g12
sg18
V/home/nils/.fonts/MetaBookLF-Roman.otf
p596
sg20
g21
sbag1
(g8
g3
NtRp597
(dp598
g11
g12
sg13
VLiberation Mono
p599
sg15
I700
sg16
g12
sg17
g12
sg18
V/usr/share/fonts/TTF/LiberationMono-Bold.ttf
p600
sg20
g21
sbag1
(g8
g3
NtRp601
(dp602
g11
g12
sg13
VPrelude
p603
sg15
I500
sg16
g12
sg17
g12
sg18
V/home/nils/.fonts/Prelude-Medium.ttf
p604
sg20
g21
sbag1
(g8
g3
NtRp605
(dp606
g11
g12
sg13
VNimbusSans
p607
sg15
I700
sg16
g12
sg17
g12
sg18
V/usr/share/fonts/OTF/NimbusSans-Bold.otf
p608
sg20
g21
sbag1
(g8
g3
NtRp609
(dp610
g11
g12
sg13
VConsolas
p611
sg15
I700
sg16
g12
sg17
g12
sg18
V/usr/share/fonts/TTF/consolab.ttf
p612
sg20
g21
sbag1
(g8
g3
NtRp613
(dp614
g11
g12
sg13
VLiberation Serif
p615
sg15
I700
sg16
g12
sg17
g12
sg18
V/usr/share/fonts/TTF/LiberationSerif-Bold.ttf
p616
sg20
g21
sbag1
(g8
g3
NtRp617
(dp618
g11
g12
sg13
VEstrangelo Midyat
p619
sg15
I400
sg16
g12
sg17
g12
sg18
V/usr/share/fonts/OTF/SyrCOMMidyat.otf
p620
sg20
g21
sbag1
(g8
g3
NtRp621
(dp622
g11
g12
sg13
VMetaSerif-Bold
p623
sg15
I700
sg16
g12
sg17
g12
sg18
V/home/nils/.fonts/MetaSerif-Bold.otf
p624
sg20
g21
sbag1
(g8
g3
NtRp625
(dp626
g11
g12
sg13
VURW Bookman
p627
sg15
I600
sg16
g12
sg17
g12
sg18
V/usr/share/fonts/OTF/URWBookman-Demi.otf
p628
sg20
g21
sbag1
(g8
g3
NtRp629
(dp630
g11
g24
sg13
VCorbel
p631
sg15
I400
sg16
g12
sg17
g12
sg18
V/usr/share/fonts/TTF/corbeli.ttf
p632
sg20
g21
sbag1
(g8
g3
NtRp633
(dp634
g11
g12
sg13
VConsolas
p635
sg15
I400
sg16
g12
sg17
g12
sg18
V/usr/share/fonts/TTF/consola.ttf
p636
sg20
g21
sbag1
(g8
g3
NtRp637
(dp638
g11
g12
sg13
VMetaSerifSc-Bold
p639
sg15
I700
sg16
g12
sg17
g12
sg18
V/home/nils/.fonts/MetaSerifSc-Bold.otf
p640
sg20
g21
sbag1
(g8
g3
NtRp641
(dp642
g11
g37
sg13
VPrelude
p643
sg15
I500
sg16
g12
sg17
g12
sg18
V/home/nils/.fonts/Prelude-MediumOblique.ttf
p644
sg20
g21
sbag1
(g8
g3
NtRp645
(dp646
g11
g12
sg13
VFreeMono
p647
sg15
I700
sg16
g12
sg17
g12
sg18
V/usr/share/fonts/TTF/FreeMonoBold.ttf
p648
sg20
g21
sbag1
(g8
g3
NtRp649
(dp650
g11
g12
sg13
VDejaVu Sans
p651
sg15
I700
sg16
g12
sg17
g12
sg18
V/usr/share/fonts/TTF/DejaVuSans-Bold.ttf
p652
sg20
g21
sbag1
(g8
g3
NtRp653
(dp654
g11
g24
sg13
VMeta
p655
sg15
I700
sg16
g12
sg17
g12
sg18
V/home/nils/.fonts/MetaBoldLf-ItalicCaps.otf
p656
sg20
g21
sbag1
(g8
g3
NtRp657
(dp658
g11
g24
sg13
VP052
p659
sg15
I400
sg16
g12
sg17
g12
sg18
V/usr/share/fonts/OTF/P052-Italic.otf
p660
sg20
g21
sbag1
(g8
g3
NtRp661
(dp662
g11
g24
sg13
VDejaVu Serif
p663
sg15
I700
sg16
g247
sg17
g12
sg18
V/usr/share/fonts/TTF/DejaVuSerifCondensed-BoldItalic.ttf
p664
sg20
g21
sbag1
(g8
g3
NtRp665
(dp666
g11
g12
sg13
VLiberation Mono
p667
sg15
I400
sg16
g12
sg17
g12
sg18
V/usr/share/fonts/TTF/LiberationMono-Regular.ttf
p668
sg20
g21
sbag1
(g8
g3
NtRp669
(dp670
g11
g12
sg13
VAndale Mono
p671
sg15
I400
sg16
g12
sg17
g12
sg18
V/usr/share/fonts/TTF/andalemo.ttf
p672
sg20
g21
sbag1
(g8
g3
NtRp673
(dp674
g11
g24
sg13
VConstantia
p675
sg15
I700
sg16
g12
sg17
g12
sg18
V/usr/share/fonts/TTF/constanz.ttf
p676
sg20
g21
sbag1
(g8
g3
NtRp677
(dp678
g11
g24
sg13
VTimes New Roman
p679
sg15
I500
sg16
g12
sg17
g12
sg18
V/usr/share/fonts/TTF/timesi.ttf
p680
sg20
g21
sbag1
(g8
g3
NtRp681
(dp682
g11
g12
sg13
VMeta
p683
sg15
I700
sg16
g12
sg17
g12
sg18
V/home/nils/.fonts/MetaBoldLF-Roman.otf
p684
sg20
g21
sbag1
(g8
g3
NtRp685
(dp686
g11
g24
sg13
VNimbus Roman
p687
sg15
I500
sg16
g12
sg17
g12
sg18
V/usr/share/fonts/OTF/NimbusRoman-Italic.otf
p688
sg20
g21
sbag1
(g8
g3
NtRp689
(dp690
g11
g12
sg13
VSerto Batnan
p691
sg15
I700
sg16
g12
sg17
g12
sg18
V/usr/share/fonts/OTF/SyrCOMBatnanBold.otf
p692
sg20
g21
sbag1
(g8
g3
NtRp693
(dp694
g11
g12
sg13
VVilla Didot
p695
sg15
I900
sg16
g12
sg17
g12
sg18
V/home/nils/.fonts/villa_didot_black.otf
p696
sg20
g21
sbag1
(g8
g3
NtRp697
(dp698
g11
g12
sg13
VP052
p699
sg15
I700
sg16
g12
sg17
g12
sg18
V/usr/share/fonts/OTF/P052-Bold.otf
p700
sg20
g21
sbag1
(g8
g3
NtRp701
(dp702
g11
g24
sg13
VDejaVu Serif
p703
sg15
I400
sg16
g12
sg17
g12
sg18
V/usr/share/fonts/TTF/DejaVuSerif-Italic.ttf
p704
sg20
g21
sbag1
(g8
g3
NtRp705
(dp706
g11
g12
sg13
VDejaVu Sans
p707
sg15
I200
sg16
g12
sg17
g12
sg18
V/usr/share/fonts/TTF/DejaVuSans-ExtraLight.ttf
p708
sg20
g21
sbag1
(g8
g3
NtRp709
(dp710
g11
g12
sg13
VFira Mono
p711
sg15
I400
sg16
g12
sg17
g12
sg18
V/usr/share/fonts/TTF/FiraMono-Regular.ttf
p712
sg20
g21
sbag1
(g8
g3
NtRp713
(dp714
g11
g12
sg13
VMeta
p715
sg15
I500
sg16
g12
sg17
g12
sg18
V/home/nils/.fonts/MetaBook-Roman.otf
p716
sg20
g21
sbag1
(g8
g3
NtRp717
(dp718
g11
g12
sg13
VGoha-Tibeb Zemen
p719
sg15
I400
sg16
g12
sg17
g12
sg18
V/usr/share/fonts/TTF/GohaTibebZemen.ttf
p720
sg20
g21
sbag1
(g8
g3
NtRp721
(dp722
g11
g12
sg13
VFreeMono
p723
sg15
I400
sg16
g12
sg17
g12
sg18
V/usr/share/fonts/TTF/FreeMono.ttf
p724
sg20
g21
sbag1
(g8
g3
NtRp725
(dp726
g11
g12
sg13
VMetaSerifTf-Bold
p727
sg15
I700
sg16
g12
sg17
g12
sg18
V/home/nils/.fonts/MetaSerifTf-Bold.otf
p728
sg20
g21
sbag1
(g8
g3
NtRp729
(dp730
g11
g12
sg13
VTimes New Roman
p731
sg15
I700
sg16
g12
sg17
g12
sg18
V/usr/share/fonts/TTF/timesbd.ttf
p732
sg20
g21
sbag1
(g8
g3
NtRp733
(dp734
g11
g24
sg13
VP052
p735
sg15
I700
sg16
g12
sg17
g12
sg18
V/usr/share/fonts/OTF/P052-BoldItalic.otf
p736
sg20
g21
sbag1
(g8
g3
NtRp737
(dp738
g11
g12
sg13
VCorbel
p739
sg15
I400
sg16
g12
sg17
g12
sg18
V/usr/share/fonts/TTF/corbel.ttf
p740
sg20
g21
sbag1
(g8
g3
NtRp741
(dp742
g11
g12
sg13
VSource Sans Pro
p743
sg15
I200
sg16
g12
sg17
g12
sg18
V/usr/share/fonts/adobe-source-sans-pro/SourceSansPro-ExtraLight.otf
p744
sg20
g21
sbag1
(g8
g3
NtRp745
(dp746
g11
g12
sg13
VMeta
p747
sg15
I500
sg16
g12
sg17
g12
sg18
V/home/nils/.fonts/MetaMedium-Roman.otf
p748
sg20
g21
sbag1
(g8
g3
NtRp749
(dp750
g11
g12
sg13
VDejaVu Sans
p751
sg15
I400
sg16
g247
sg17
g12
sg18
V/usr/share/fonts/TTF/DejaVuSansCondensed.ttf
p752
sg20
g21
sbag1
(g8
g3
NtRp753
(dp754
g11
g12
sg13
VGeorgia
p755
sg15
I700
sg16
g12
sg17
g12
sg18
V/usr/share/fonts/TTF/georgiab.ttf
p756
sg20
g21
sbag1
(g8
g3
NtRp757
(dp758
g11
g12
sg13
VMeta
p759
sg15
I700
sg16
g12
sg17
g12
sg18
V/home/nils/.fonts/MetaBold-Roman.otf
p760
sg20
g21
sbag1
(g8
g3
NtRp761
(dp762
g11
g12
sg13
VCourier New
p763
sg15
I700
sg16
g12
sg17
g12
sg18
V/usr/share/fonts/TTF/courbd.ttf
p764
sg20
g21
sbag1
(g8
g3
NtRp765
(dp766
g11
g12
sg13
VMeta
p767
sg15
I500
sg16
g12
sg17
g12
sg18
V/home/nils/.fonts/MetaMediumLF-Roman.otf
p768
sg20
g21
sbag1
(g8
g3
NtRp769
(dp770
g11
g12
sg13
VCalibri
p771
sg15
I700
sg16
g12
sg17
g12
sg18
V/usr/share/fonts/TTF/calibrib.ttf
p772
sg20
g21
sbag1
(g8
g3
NtRp773
(dp774
g11
g12
sg13
VFreeSerif
p775
sg15
I400
sg16
g12
sg17
g12
sg18
V/usr/share/fonts/TTF/FreeSerif.ttf
p776
sg20
g21
sbag1
(g8
g3
NtRp777
(dp778
g11
g12
sg13
VEstrangelo Edessa
p779
sg15
I400
sg16
g12
sg17
g12
sg18
V/usr/share/fonts/OTF/SyrCOMEdessa.otf
p780
sg20
g21
sbag1
(g8
g3
NtRp781
(dp782
g11
g12
sg13
VMetaSerifTf-Book
p783
sg15
I400
sg16
g12
sg17
g12
sg18
V/home/nils/.fonts/MetaSerifTf-Book.otf
p784
sg20
g21
sbag1
(g8
g3
NtRp785
(dp786
g11
g24
sg13
VConsolas
p787
sg15
I700
sg16
g12
sg17
g12
sg18
V/usr/share/fonts/TTF/consolaz.ttf
p788
sg20
g21
sbag1
(g8
g3
NtRp789
(dp790
g11
g12
sg13
VSerto Urhoy
p791
sg15
I700
sg16
g12
sg17
g12
sg18
V/usr/share/fonts/OTF/SyrCOMUrhoyBold.otf
p792
sg20
g21
sbag1
(g8
g3
NtRp793
(dp794
g11
g12
sg13
VDejaVu Sans
p795
sg15
I700
sg16
g247
sg17
g12
sg18
V/usr/share/fonts/TTF/DejaVuSansCondensed-Bold.ttf
p796
sg20
g21
sbag1
(g8
g3
NtRp797
(dp798
g11
g12
sg13
VUbuntu
p799
sg15
I700
sg16
g12
sg17
g12
sg18
V/usr/share/fonts/TTF/Ubuntu-B.ttf
p800
sg20
g21
sbag1
(g8
g3
NtRp801
(dp802
g11
g24
sg13
VMeta
p803
sg15
I700
sg16
g12
sg17
g12
sg18
V/home/nils/.fonts/MetaBold-ItalicCaps.otf
p804
sg20
g21
sbag1
(g8
g3
NtRp805
(dp806
g11
g24
sg13
VMeta
p807
sg15
I400
sg16
g12
sg17
g12
sg18
V/home/nils/.fonts/MetaBookLF-ItalicCaps.otf
p808
sg20
g21
sbag1
(g8
g3
NtRp809
(dp810
g11
g12
sg13
VPrelude
p811
sg15
I500
sg16
g247
sg17
g12
sg18
V/home/nils/.fonts/PreludeCondensed-Medium.ttf
p812
sg20
g21
sbag1
(g8
g3
NtRp813
(dp814
g11
g24
sg13
VTimes New Roman
p815
sg15
I700
sg16
g12
sg17
g12
sg18
V/usr/share/fonts/TTF/timesbi.ttf
p816
sg20
g21
sbag1
(g8
g3
NtRp817
(dp818
g11
g37
sg13
VPrelude
p819
sg15
I700
sg16
g12
sg17
g12
sg18
V/home/nils/.fonts/Prelude-BoldOblique.ttf
p820
sg20
g21
sbag1
(g8
g3
NtRp821
(dp822
g11
g24
sg13
VTrebuchet MS
p823
sg15
I700
sg16
g12
sg17
g12
sg18
V/usr/share/fonts/TTF/trebucbi.ttf
p824
sg20
g21
sbag1
(g8
g3
NtRp825
(dp826
g11
g12
sg13
VMeta
p827
sg15
I400
sg16
g12
sg17
g12
sg18
V/home/nils/.fonts/MetaNormalLF-Caps.otf
p828
sg20
g21
sbag1
(g8
g3
NtRp829
(dp830
g11
g12
sg13
VCalibri
p831
sg15
I400
sg16
g12
sg17
g12
sg18
V/usr/share/fonts/TTF/calibri.ttf
p832
sg20
g21
sbag1
(g8
g3
NtRp833
(dp834
g11
g24
sg13
VTrebuchet MS
p835
sg15
I400
sg16
g12
sg17
g12
sg18
V/usr/share/fonts/TTF/trebucit.ttf
p836
sg20
g21
sbag1
(g8
g3
NtRp837
(dp838
g11
g24
sg13
VUbuntu
p839
sg15
I700
sg16
g12
sg17
g12
sg18
V/usr/share/fonts/TTF/Ubuntu-BI.ttf
p840
sg20
g21
sbag1
(g8
g3
NtRp841
(dp842
g11
g12
sg13
VStandard Symbols PS
p843
sg15
I400
sg16
g12
sg17
g12
sg18
V/usr/share/fonts/OTF/StandardSymbolsPS.otf
p844
sg20
g21
sbag1
(g8
g3
NtRp845
(dp846
g11
g24
sg13
VSerto Jerusalem
p847
sg15
I400
sg16
g12
sg17
g12
sg18
V/usr/share/fonts/OTF/SyrCOMJerusalemItalic.otf
p848
sg20
g21
sbag1
(g8
g3
NtRp849
(dp850
g11
g24
sg13
VConsolas
p851
sg15
I400
sg16
g12
sg17
g12
sg18
V/usr/share/fonts/TTF/consolai.ttf
p852
sg20
g21
sbag1
(g8
g3
NtRp853
(dp854
g11
g12
sg13
VSource Serif Pro
p855
sg15
I700
sg16
g12
sg17
g12
sg18
V/usr/share/fonts/adobe-source-serif-pro/SourceSerifPro-Semibold.otf
p856
sg20
g21
sbag1
(g8
g3
NtRp857
(dp858
g11
g12
sg13
VMuseo
p859
sg15
I400
sg16
g12
sg17
g12
sg18
V/home/nils/.fonts/Museo700-Regular.otf
p860
sg20
g21
sbag1
(g8
g3
NtRp861
(dp862
g11
g12
sg13
VCorbel
p863
sg15
I700
sg16
g12
sg17
g12
sg18
V/usr/share/fonts/TTF/corbelb.ttf
p864
sg20
g21
sbag1
(g8
g3
NtRp865
(dp866
g11
g12
sg13
VSource Serif Pro
p867
sg15
I900
sg16
g12
sg17
g12
sg18
V/usr/share/fonts/adobe-source-serif-pro/SourceSerifPro-Black.otf
p868
sg20
g21
sbag1
(g8
g3
NtRp869
(dp870
g11
g12
sg13
VSource Sans Pro
p871
sg15
I700
sg16
g12
sg17
g12
sg18
V/usr/share/fonts/adobe-source-sans-pro/SourceSansPro-Semibold.otf
p872
sg20
g21
sbag1
(g8
g3
NtRp873
(dp874
g11
g12
sg13
VSerto Kharput
p875
sg15
I400
sg16
g12
sg17
g12
sg18
V/usr/share/fonts/OTF/SyrCOMKharput.otf
p876
sg20
g21
sbag1
(g8
g3
NtRp877
(dp878
g11
g12
sg13
VConstantia
p879
sg15
I400
sg16
g12
sg17
g12
sg18
V/usr/share/fonts/TTF/constan.ttf
p880
sg20
g21
sbag1
(g8
g3
NtRp881
(dp882
g11
g12
sg13
VWebdings
p883
sg15
I400
sg16
g12
sg17
g12
sg18
V/usr/share/fonts/TTF/webdings.ttf
p884
sg20
g21
sbag1
(g8
g3
NtRp885
(dp886
g11
g12
sg13
VMeta
p887
sg15
I500
sg16
g12
sg17
g12
sg18
V/home/nils/.fonts/MetaMediumLF-Caps.otf
p888
sg20
g21
sbag1
(g8
g3
NtRp889
(dp890
g11
g12
sg13
VFira Mono
p891
sg15
I700
sg16
g12
sg17
g12
sg18
V/usr/share/fonts/TTF/FiraMono-Bold.ttf
p892
sg20
g21
sbag1
(g8
g3
NtRp893
(dp894
g11
g24
sg13
VSource Sans Pro
p895
sg15
I200
sg16
g12
sg17
g12
sg18
V/usr/share/fonts/adobe-source-sans-pro/SourceSansPro-ExtraLightIt.otf
p896
sg20
g21
sbag1
(g8
g3
NtRp897
(dp898
g11
g12
sg13
VSerto Malankara
p899
sg15
I400
sg16
g12
sg17
g12
sg18
V/usr/share/fonts/OTF/SyrCOMMalankara.otf
p900
sg20
g21
sbag1
(g8
g3
NtRp901
(dp902
g11
g24
sg13
VCorbel
p903
sg15
I700
sg16
g12
sg17
g12
sg18
V/usr/share/fonts/TTF/corbelz.ttf
p904
sg20
g21
sbag1
(g8
g3
NtRp905
(dp906
g11
g24
sg13
VFreeSerif
p907
sg15
I700
sg16
g12
sg17
g12
sg18
V/usr/share/fonts/TTF/FreeSerifBoldItalic.ttf
p908
sg20
g21
sbag1
(g8
g3
NtRp909
(dp910
g11
g24
sg13
VSource Sans Pro
p911
sg15
I700
sg16
g12
sg17
g12
sg18
V/usr/share/fonts/adobe-source-sans-pro/SourceSansPro-BoldIt.otf
p912
sg20
g21
sbag1
(g8
g3
NtRp913
(dp914
g11
g12
sg13
VFreeSerif
p915
sg15
I700
sg16
g12
sg17
g12
sg18
V/usr/share/fonts/TTF/FreeSerifBold.ttf
p916
sg20
g21
sbag1
(g8
g3
NtRp917
(dp918
g11
g24
sg13
VMeta
p919
sg15
I400
sg16
g12
sg17
g12
sg18
V/home/nils/.fonts/MetaBook-Italic.otf
p920
sg20
g21
sbag1
(g8
g3
NtRp921
(dp922
g11
g12
sg13
VNimbus Mono PS
p923
sg15
I400
sg16
g12
sg17
g12
sg18
V/usr/share/fonts/OTF/NimbusMonoPS-Regular.otf
p924
sg20
g21
sbag1
(g8
g3
NtRp925
(dp926
g11
g24
sg13
VMeta
p927
sg15
I500
sg16
g12
sg17
g12
sg18
V/home/nils/.fonts/MetaMedium-ItalicCaps.otf
p928
sg20
g21
sbag1
(g8
g3
NtRp929
(dp930
g11
g24
sg13
VMeta
p931
sg15
I400
sg16
g12
sg17
g12
sg18
V/home/nils/.fonts/MetaNormalLF-Italic.otf
p932
sg20
g21
sbag1
(g8
g3
NtRp933
(dp934
g11
g12
sg13
VUbuntu
p935
sg15
I200
sg16
g12
sg17
g12
sg18
V/usr/share/fonts/TTF/Ubuntu-L.ttf
p936
sg20
g21
sbag1
(g8
g3
NtRp937
(dp938
g11
g24
sg13
VSource Sans Pro
p939
sg15
I700
sg16
g12
sg17
g12
sg18
V/usr/share/fonts/adobe-source-sans-pro/SourceSansPro-SemiboldIt.otf
p940
sg20
g21
sbag1
(g8
g3
NtRp941
(dp942
g11
g12
sg13
VVilla Didot
p943
sg15
I400
sg16
g12
sg17
g12
sg18
V/home/nils/.fonts/villad_didot_carved.otf
p944
sg20
g21
sbag1
(g8
g3
NtRp945
(dp946
g11
g12
sg13
VFreeSans
p947
sg15
I700
sg16
g12
sg17
g12
sg18
V/usr/share/fonts/TTF/FreeSansBold.ttf
p948
sg20
g21
sbag1
(g8
g3
NtRp949
(dp950
g11
g24
sg13
VVerdana
p951
sg15
I700
sg16
g12
sg17
g12
sg18
V/usr/share/fonts/TTF/verdanaz.ttf
p952
sg20
g21
sbag1
(g8
g3
NtRp953
(dp954
g11
g24
sg13
VCalibri
p955
sg15
I700
sg16
g12
sg17
g12
sg18
V/usr/share/fonts/TTF/calibriz.ttf
p956
sg20
g21
sbag1
(g8
g3
NtRp957
(dp958
g11
g12
sg13
VPrelude
p959
sg15
I700
sg16
g12
sg17
g12
sg18
V/home/nils/.fonts/Prelude-Bold.ttf
p960
sg20
g21
sbag1
(g8
g3
NtRp961
(dp962
g11
g12
sg13
VMeta
p963
sg15
I700
sg16
g12
sg17
g12
sg18
V/home/nils/.fonts/MetaBold-Caps.otf
p964
sg20
g21
sbag1
(g8
g3
NtRp965
(dp966
g11
g12
sg13
VVilla Didot
p967
sg15
I400
sg16
g12
sg17
g12
sg18
V/home/nils/.fonts/villa_didot_cutout.otf
p968
sg20
g21
sbag1
(g8
g3
NtRp969
(dp970
g11
g37
sg13
VCantarell
p971
sg15
I400
sg16
g12
sg17
g12
sg18
V/usr/share/fonts/cantarell/Cantarell-Oblique.otf
p972
sg20
g21
sbag1
(g8
g3
NtRp973
(dp974
g11
g12
sg13
VMeta
p975
sg15
I500
sg16
g12
sg17
g12
sg18
V/home/nils/.fonts/MetaBlackLf-Roman.otf
p976
sg20
g21
sbag1
(g8
g3
NtRp977
(dp978
g11
g12
sg13
VMeta
p979
sg15
I400
sg16
g12
sg17
g12
sg18
V/home/nils/.fonts/MetaNormal-Roman.otf
p980
sg20
g21
sbag1
(g8
g3
NtRp981
(dp982
g11
g12
sg13
VVerdana
p983
sg15
I400
sg16
g12
sg17
g12
sg18
V/usr/share/fonts/TTF/verdana.ttf
p984
sg20
g21
sbag1
(g8
g3
NtRp985
(dp986
g11
g24
sg13
VUbuntu
p987
sg15
I500
sg16
g12
sg17
g12
sg18
V/usr/share/fonts/TTF/Ubuntu-MI.ttf
p988
sg20
g21
sbag1
(g8
g3
NtRp989
(dp990
g11
g12
sg13
VSerto Jerusalem Outline
p991
sg15
I400
sg16
g12
sg17
g12
sg18
V/usr/share/fonts/OTF/SyrCOMJerusalemOutline.otf
p992
sg20
g21
sbag1
(g8
g3
NtRp993
(dp994
g11
g12
sg13
VCantarell
p995
sg15
I400
sg16
g12
sg17
g12
sg18
V/usr/share/fonts/cantarell/Cantarell-Regular.otf
p996
sg20
g21
sbag1
(g8
g3
NtRp997
(dp998
g11
g24
sg13
VMeta
p999
sg15
I400
sg16
g12
sg17
g12
sg18
V/home/nils/.fonts/MetaBook-ItalicCaps.otf
p1000
sg20
g21
sbag1
(g8
g3
NtRp1001
(dp1002
g11
g12
sg13
VCourier New
p1003
sg15
I400
sg16
g12
sg17
g12
sg18
V/usr/share/fonts/TTF/cour.ttf
p1004
sg20
g21
sbag1
(g8
g3
NtRp1005
(dp1006
g11
g12
sg13
VHelveticaNeue
p1007
sg15
I200
sg16
g12
sg17
g12
sg18
V/home/nils/.fonts/HelveticaNeue Light.ttf
p1008
sg20
g21
sbag1
(g8
g3
NtRp1009
(dp1010
g11
g12
sg13
VUbuntu Mono
p1011
sg15
I400
sg16
g12
sg17
g12
sg18
V/usr/share/fonts/TTF/UbuntuMono-R.ttf
p1012
sg20
g21
sbag1
(g8
g3
NtRp1013
(dp1014
g11
g24
sg13
VMeta
p1015
sg15
I700
sg16
g12
sg17
g12
sg18
V/home/nils/.fonts/MetaBold-Italic.otf
p1016
sg20
g21
sbag1
(g8
g3
NtRp1017
(dp1018
g11
g24
sg13
VC059
p1019
sg15
I400
sg16
g12
sg17
g12
sg18
V/usr/share/fonts/OTF/C059-Italic.otf
p1020
sg20
g21
sbag1
(g8
g3
NtRp1021
(dp1022
g11
g12
sg13
VInconsolata
p1023
sg15
I400
sg16
g12
sg17
g12
sg18
V/usr/share/fonts/TTF/Inconsolata-Regular.ttf
p1024
sg20
g21
sbag1
(g8
g3
NtRp1025
(dp1026
g11
g12
sg13
VDINPro
p1027
sg15
I400
sg16
g12
sg17
g12
sg18
V/home/nils/.fonts/DINPro-Regular.otf
p1028
sg20
g21
sbag1
(g8
g3
NtRp1029
(dp1030
g11
g12
sg13
VUbuntu Mono
p1031
sg15
I700
sg16
g12
sg17
g12
sg18
V/usr/share/fonts/TTF/UbuntuMono-B.ttf
p1032
sg20
g21
sbag1
(g8
g3
NtRp1033
(dp1034
g11
g12
sg13
VDejaVu Sans
p1035
sg15
I400
sg16
g12
sg17
g12
sg18
V/usr/share/fonts/TTF/DejaVuSans.ttf
p1036
sg20
g21
sbag1
(g8
g3
NtRp1037
(dp1038
g11
g24
sg13
VFreeSerif
p1039
sg15
I400
sg16
g12
sg17
g12
sg18
V/usr/share/fonts/TTF/FreeSerifItalic.ttf
p1040
sg20
g21
sbag1
(g8
g3
NtRp1041
(dp1042
g11
g12
sg13
VEast Syriac Ctesiphon
p1043
sg15
I400
sg16
g12
sg17
g12
sg18
V/usr/share/fonts/OTF/SyrCOMCtesiphon.otf
p1044
sg20
g21
sbag1
(g8
g3
NtRp1045
(dp1046
g11
g37
sg13
VURW Gothic
p1047
sg15
I600
sg16
g12
sg17
g12
sg18
V/usr/share/fonts/OTF/URWGothic-DemiOblique.otf
p1048
sg20
g21
sbag1
(g8
g3
NtRp1049
(dp1050
g11
g12
sg13
VURW Gothic
p1051
sg15
I600
sg16
g12
sg17
g12
sg18
V/usr/share/fonts/OTF/URWGothic-Demi.otf
p1052
sg20
g21
sbag1
(g8
g3
NtRp1053
(dp1054
g11
g24
sg13
VArial
p1055
sg15
I700
sg16
g12
sg17
g12
sg18
V/usr/share/fonts/TTF/arialbi.ttf
p1056
sg20
g21
sbag1
(g8
g3
NtRp1057
(dp1058
g11
g12
sg13
VDejaVu Sans Mono
p1059
sg15
I700
sg16
g12
sg17
g12
sg18
V/usr/share/fonts/TTF/DejaVuSansMono-Bold.ttf
p1060
sg20
g21
sbag1
(g8
g3
NtRp1061
(dp1062
g11
g12
sg13
VMetaSerifLf-Bold
p1063
sg15
I700
sg16
g12
sg17
g12
sg18
V/home/nils/.fonts/MetaSerifLf-Bold.otf
p1064
sg20
g21
sbag1
(g8
g3
NtRp1065
(dp1066
g11
g12
sg13
VImpact
p1067
sg15
I400
sg16
g12
sg17
g12
sg18
V/usr/share/fonts/TTF/impact.ttf
p1068
sg20
g21
sbag1
(g8
g3
NtRp1069
(dp1070
g11
g12
sg13
VRoadway
p1071
sg15
I400
sg16
g12
sg17
g12
sg18
V/home/nils/.fonts/ROADWAY_.otf
p1072
sg20
g21
sbag1
(g8
g3
NtRp1073
(dp1074
g11
g12
sg13
VEast Syriac Adiabene
p1075
sg15
I400
sg16
g12
sg17
g12
sg18
V/usr/share/fonts/OTF/SyrCOMAdiabene.otf
p1076
sg20
g21
sbag1
(g8
g3
NtRp1077
(dp1078
g11
g24
sg13
VMetaSerif-BookIta
p1079
sg15
I400
sg16
g12
sg17
g12
sg18
V/home/nils/.fonts/MetaSerif-BookIta.otf
p1080
sg20
g21
sbag1
(g8
g3
NtRp1081
(dp1082
g11
g37
sg13
VNimbusSans
p1083
sg15
I400
sg16
g12
sg17
g12
sg18
V/usr/share/fonts/OTF/NimbusSans-Oblique.otf
p1084
sg20
g21
sbag1
(g8
g3
NtRp1085
(dp1086
g11
g24
sg13
VCambria
p1087
sg15
I400
sg16
g12
sg17
g12
sg18
V/usr/share/fonts/TTF/cambriai.ttf
p1088
sg20
g21
sbag1
(g8
g3
NtRp1089
(dp1090
g11
g12
sg13
VC059
p1091
sg15
I700
sg16
g12
sg17
g12
sg18
V/usr/share/fonts/OTF/C059-Bold.otf
p1092
sg20
g21
sbag1
(g8
g3
NtRp1093
(dp1094
g11
g24
sg13
VUbuntu Mono
p1095
sg15
I700
sg16
g12
sg17
g12
sg18
V/usr/share/fonts/TTF/UbuntuMono-BI.ttf
p1096
sg20
g21
sbag1
(g8
g3
NtRp1097
(dp1098
g11
g12
sg13
VFutura Lt BT
p1099
sg15
I200
sg16
g12
sg17
g12
sg18
V/home/nils/.fonts/Futura Light BT.TTF
p1100
sg20
g21
sbag1
(g8
g3
NtRp1101
(dp1102
g11
g24
sg13
VCourier New
p1103
sg15
I700
sg16
g12
sg17
g12
sg18
V/usr/share/fonts/TTF/courbi.ttf
p1104
sg20
g21
sbag1
(g8
g3
NtRp1105
(dp1106
g11
g12
sg13
VCandara
p1107
sg15
I400
sg16
g12
sg17
g12
sg18
V/usr/share/fonts/TTF/candara.ttf
p1108
sg20
g21
sbag1
(g8
g3
NtRp1109
(dp1110
g11
g24
sg13
VLiberation Sans
p1111
sg15
I400
sg16
g12
sg17
g12
sg18
V/usr/share/fonts/TTF/LiberationSans-Italic.ttf
p1112
sg20
g21
sbag1
(g8
g3
NtRp1113
(dp1114
g11
g24
sg13
VNimbus Roman
p1115
sg15
I700
sg16
g12
sg17
g12
sg18
V/usr/share/fonts/OTF/NimbusRoman-BoldItalic.otf
p1116
sg20
g21
sbag1
(g8
g3
NtRp1117
(dp1118
g11
g12
sg13
VMeta
p1119
sg15
I700
sg16
g12
sg17
g12
sg18
V/home/nils/.fonts/MetaBoldLf-Caps.otf
p1120
sg20
g21
sbag1
(g8
g3
NtRp1121
(dp1122
g11
g37
sg13
VNimbusSans
p1123
sg15
I700
sg16
g12
sg17
g12
sg18
V/usr/share/fonts/OTF/NimbusSans-BoldOblique.otf
p1124
sg20
g21
sbag1
(g8
g3
NtRp1125
(dp1126
g11
g12
sg13
VTrebuchet MS
p1127
sg15
I700
sg16
g12
sg17
g12
sg18
V/usr/share/fonts/TTF/trebucbd.ttf
p1128
sg20
g21
sbag1
(g8
g3
NtRp1129
(dp1130
g11
g24
sg13
VMetaSerif-BoldIta
p1131
sg15
I700
sg16
g12
sg17
g12
sg18
V/home/nils/.fonts/MetaSerif-BoldIta.otf
p1132
sg20
g21
sbag1
(g8
g3
NtRp1133
(dp1134
g11
g12
sg13
VNimbus Mono PS
p1135
sg15
I700
sg16
g12
sg17
g12
sg18
V/usr/share/fonts/OTF/NimbusMonoPS-Bold.otf
p1136
sg20
g21
sbag1
(g8
g3
NtRp1137
(dp1138
g11
g12
sg13
VSource Serif Pro
p1139
sg15
I200
sg16
g12
sg17
g12
sg18
V/usr/share/fonts/adobe-source-serif-pro/SourceSerifPro-ExtraLight.otf
p1140
sg20
g21
sbag1
(g8
g3
NtRp1141
(dp1142
g11
g24
sg13
VUbuntu Mono
p1143
sg15
I400
sg16
g12
sg17
g12
sg18
V/usr/share/fonts/TTF/UbuntuMono-RI.ttf
p1144
sg20
g21
sbag1
(g8
g3
NtRp1145
(dp1146
g11
g12
sg13
VEstrangelo Nisibin
p1147
sg15
I400
sg16
g12
sg17
g12
sg18
V/usr/share/fonts/OTF/SyrCOMNisibin.otf
p1148
sg20
g21
sbag1
(g8
g3
NtRp1149
(dp1150
g11
g24
sg13
VMeta
p1151
sg15
I500
sg16
g12
sg17
g12
sg18
V/home/nils/.fonts/MetaMedium-Italic.otf
p1152
sg20
g21
sbag1
(g8
g3
NtRp1153
(dp1154
g11
g12
sg13
VNimbus Sans
p1155
sg15
I400
sg16
g12
sg17
g12
sg18
V/usr/share/fonts/OTF/NimbusSans-Regular.otf
p1156
sg20
g21
sbag1
(g8
g3
NtRp1157
(dp1158
g11
g12
sg13
VSource Serif Pro
p1159
sg15
I200
sg16
g12
sg17
g12
sg18
V/usr/share/fonts/adobe-source-serif-pro/SourceSerifPro-Light.otf
p1160
sg20
g21
sbag1
(g8
g3
NtRp1161
(dp1162
g11
g12
sg13
VDINPro
p1163
sg15
I200
sg16
g12
sg17
g12
sg18
V/home/nils/.fonts/DINPro-Light.otf
p1164
sg20
g21
sbag1
(g8
g3
NtRp1165
(dp1166
g11
g12
sg13
VC059
p1167
sg15
I500
sg16
g12
sg17
g12
sg18
V/usr/share/fonts/OTF/C059-Roman.otf
p1168
sg20
g21
sbag1
(g8
g3
NtRp1169
(dp1170
g11
g37
sg13
VDejaVu Sans Mono
p1171
sg15
I700
sg16
g12
sg17
g12
sg18
V/usr/share/fonts/TTF/DejaVuSansMono-BoldOblique.ttf
p1172
sg20
g21
sbag1
(g8
g3
NtRp1173
(dp1174
g11
g24
sg13
VGeorgia
p1175
sg15
I700
sg16
g12
sg17
g12
sg18
V/usr/share/fonts/TTF/georgiaz.ttf
p1176
sg20
g21
sbag1
(g8
g3
NtRp1177
(dp1178
g11
g24
sg13
VLiberation Sans
p1179
sg15
I700
sg16
g12
sg17
g12
sg18
V/usr/share/fonts/TTF/LiberationSans-BoldItalic.ttf
p1180
sg20
g21
sbag1
(g8
g3
NtRp1181
(dp1182
g11
g37
sg13
VFreeMono
p1183
sg15
I700
sg16
g12
sg17
g12
sg18
V/usr/share/fonts/TTF/FreeMonoBoldOblique.ttf
p1184
sg20
g21
sbag1
(g8
g3
NtRp1185
(dp1186
g11
g37
sg13
VNimbus Sans Narrow
p1187
sg15
I400
sg16
g247
sg17
g12
sg18
V/usr/share/fonts/OTF/NimbusSansNarrow-Oblique.otf
p1188
sg20
g21
sbag1
(g8
g3
NtRp1189
(dp1190
g11
g24
sg13
VMeta
p1191
sg15
I900
sg16
g12
sg17
g12
sg18
V/home/nils/.fonts/MetaBlack-ItalicCaps.otf
p1192
sg20
g21
sbag1
(g8
g3
NtRp1193
(dp1194
g11
g12
sg13
VEstrangelo TurAbdin
p1195
sg15
I400
sg16
g12
sg17
g12
sg18
V/usr/share/fonts/OTF/SyrCOMTurAbdin.otf
p1196
sg20
g21
sbag1
(g8
g3
NtRp1197
(dp1198
g11
g37
sg13
VDejaVu Sans Mono
p1199
sg15
I400
sg16
g12
sg17
g12
sg18
V/usr/share/fonts/TTF/DejaVuSansMono-Oblique.ttf
p1200
sg20
g21
sbag1
(g8
g3
NtRp1201
(dp1202
g11
g12
sg13
VTimes New Roman
p1203
sg15
I500
sg16
g12
sg17
g12
sg18
V/usr/share/fonts/TTF/times.ttf
p1204
sg20
g21
sbag1
(g8
g3
NtRp1205
(dp1206
g11
g37
sg13
VDejaVu Sans
p1207
sg15
I400
sg16
g247
sg17
g12
sg18
V/usr/share/fonts/TTF/DejaVuSansCondensed-Oblique.ttf
p1208
sg20
g21
sbag1
(g8
g3
NtRp1209
(dp1210
g11
g12
sg13
VNimbus Roman
p1211
sg15
I500
sg16
g12
sg17
g12
sg18
V/usr/share/fonts/OTF/NimbusRoman-Regular.otf
p1212
sg20
g21
sbag1
(g8
g3
NtRp1213
(dp1214
g11
g12
sg13
VNimbus Roman
p1215
sg15
I700
sg16
g12
sg17
g12
sg18
V/usr/share/fonts/OTF/NimbusRoman-Bold.otf
p1216
sg20
g21
sbag1
(g8
g3
NtRp1217
(dp1218
g11
g12
sg13
VMeta
p1219
sg15
I400
sg16
g12
sg17
g12
sg18
V/home/nils/.fonts/MetaNormal-Caps.otf
p1220
sg20
g21
sbag1
(g8
g3
NtRp1221
(dp1222
g11
g24
sg13
VMeta
p1223
sg15
I900
sg16
g12
sg17
g12
sg18
V/home/nils/.fonts/MetaBlackLf-ItalicCaps.otf
p1224
sg20
g21
sbag1
(g8
g3
NtRp1225
(dp1226
g11
g12
sg13
VMeta
p1227
sg15
I900
sg16
g12
sg17
g12
sg18
V/home/nils/.fonts/MetaBlackLf-Caps.otf
p1228
sg20
g21
sbag1
(g8
g3
NtRp1229
(dp1230
g11
g24
sg13
VMetaSerifTf-BookIta
p1231
sg15
I400
sg16
g12
sg17
g12
sg18
V/home/nils/.fonts/MetaSerifTf-BookIta.otf
p1232
sg20
g21
sbag1
(g8
g3
NtRp1233
(dp1234
g11
g24
sg13
VCourier New
p1235
sg15
I400
sg16
g12
sg17
g12
sg18
V/usr/share/fonts/TTF/couri.ttf
p1236
sg20
g21
sbag1
(g8
g3
NtRp1237
(dp1238
g11
g12
sg13
VDINPro
p1239
sg15
I900
sg16
g12
sg17
g12
sg18
V/home/nils/.fonts/DINPro-Black.otf
p1240
sg20
g21
sbag1
(g8
g3
NtRp1241
(dp1242
g11
g12
sg13
VLiberation Serif
p1243
sg15
I400
sg16
g12
sg17
g12
sg18
V/usr/share/fonts/TTF/LiberationSerif-Regular.ttf
p1244
sg20
g21
sbag1
(g8
g3
NtRp1245
(dp1246
g11
g12
sg13
VMeta
p1247
sg15
I400
sg16
g12
sg17
g12
sg18
V/home/nils/.fonts/MetaNormalLF-Roman.otf
p1248
sg20
g21
sbag1
(g8
g3
NtRp1249
(dp1250
g11
g12
sg13
VMetaSerif-Book
p1251
sg15
I400
sg16
g12
sg17
g12
sg18
V/home/nils/.fonts/MetaSerif-Book.otf
p1252
sg20
g21
sbag1
(g8
g3
NtRp1253
(dp1254
g11
g12
sg13
VURW Bookman
p1255
sg15
I200
sg16
g12
sg17
g12
sg18
V/usr/share/fonts/OTF/URWBookman-Light.otf
p1256
sg20
g21
sbasS'defaultFamily'
p1257
(dp1258
Vafm
p1259
VHelvetica
p1260
sVttf
p1261
VBitstream Vera Sans
p1262
ssS'ttffiles'
p1263
(lp1264
g19
ag26
ag30
ag34
ag39
ag43
ag47
ag51
ag55
ag59
ag63
ag67
ag71
ag75
ag79
ag83
ag87
ag91
ag95
ag99
ag103
ag107
ag111
ag115
ag119
ag123
ag127
ag131
ag135
ag139
ag143
ag147
ag151
ag155
ag159
ag163
ag167
ag171
ag175
ag179
ag183
ag187
ag191
ag195
ag199
ag203
ag207
ag211
ag215
ag219
ag223
ag227
ag231
ag235
ag239
ag243
ag248
ag252
ag256
ag260
ag264
ag268
ag272
ag276
ag280
ag284
ag288
ag292
ag296
ag300
ag304
aV/usr/share/fonts/TTF/VeraSe.ttf
p1265
ag308
ag312
ag316
ag320
ag324
ag328
ag332
ag336
ag340
ag344
ag348
ag352
ag356
ag360
ag364
ag368
ag372
ag376
ag380
ag384
ag388
ag392
ag396
ag400
ag404
ag408
ag412
ag416
ag420
ag424
ag428
ag432
ag436
ag440
ag444
ag448
ag452
ag456
ag460
ag464
ag468
ag472
ag476
ag480
ag484
ag488
ag492
ag496
ag500
ag504
ag508
ag512
ag516
ag520
ag524
ag528
ag532
ag536
ag540
ag544
ag548
ag552
ag556
ag560
ag564
ag568
ag572
ag576
aV/usr/share/fonts/TTF/VeraMoIt.ttf
p1266
ag580
ag584
ag588
aV/usr/share/fonts/TTF/Vera.ttf
p1267
ag592
ag596
ag600
ag604
ag608
ag612
ag616
ag620
ag624
ag628
ag632
ag636
ag640
ag644
ag648
ag652
ag656
ag660
ag664
ag668
ag672
aV/usr/share/fonts/TTF/VeraBd.ttf
p1268
ag676
ag680
ag684
ag688
ag692
ag696
ag700
ag704
ag708
ag712
ag716
ag720
ag724
ag728
ag732
ag736
aV/usr/share/fonts/TTF/VeraMono.ttf
p1269
ag740
aV/usr/share/fonts/TTF/VeraIt.ttf
p1270
ag744
ag748
ag752
ag756
ag760
ag764
ag768
ag772
ag776
ag780
ag784
ag788
ag792
ag796
ag800
aV/usr/share/fonts/TTF/VeraMoBI.ttf
p1271
ag804
ag808
ag812
ag816
aV/usr/share/fonts/TTF/VeraMoBd.ttf
p1272
ag820
ag824
ag828
ag832
ag836
ag840
ag844
ag848
ag852
ag856
ag860
ag864
ag868
ag872
ag876
ag880
ag884
ag888
ag892
ag896
ag900
ag904
ag908
ag912
ag916
ag920
ag924
ag928
ag932
ag936
ag940
ag944
ag948
ag952
ag956
ag960
ag964
ag968
ag972
ag976
ag980
ag984
ag988
ag992
ag996
ag1000
ag1004
ag1008
ag1012
ag1016
ag1020
ag1024
ag1028
ag1032
ag1036
ag1040
ag1044
ag1048
aV/usr/share/fonts/TTF/VeraBI.ttf
p1273
aV/usr/share/fonts/TTF/VeraSeBd.ttf
p1274
ag1052
ag1056
ag1060
ag1064
ag1068
ag1072
ag1076
ag1080
ag1084
ag1088
ag1092
ag1096
ag1100
ag1104
ag1108
ag1112
ag1116
ag1120
ag1124
ag1128
ag1132
ag1136
ag1140
ag1144
ag1148
ag1152
ag1156
ag1160
ag1164
ag1168
ag1172
ag1176
ag1180
ag1184
ag1188
ag1192
ag1196
ag1200
ag1204
ag1208
ag1212
ag1216
ag1220
ag1224
ag1228
ag1232
ag1236
ag1240
ag1244
ag1248
ag1252
ag1256
asS'_FontManager__default_weight'
p1275
Vnormal
p1276
sS'_version'
p1277
I101
sS'default_size'
p1278
NsS'defaultFont'
p1279
(dp1280
g1259
V/home/nils/Arbeit/seaborn/lib/python2.7/site-packages/matplotlib/mpl-data/fonts/pdfcorefonts/Helvetica-Bold.afm
p1281
sg1261
g34
ssS'afmfiles'
p1282
(lp1283
g1281
aV/home/nils/Arbeit/seaborn/lib/python2.7/site-packages/matplotlib/mpl-data/fonts/afm/pncb8a.afm
p1284
aV/home/nils/Arbeit/seaborn/lib/python2.7/site-packages/matplotlib/mpl-data/fonts/afm/pcrro8a.afm
p1285
aV/home/nils/Arbeit/seaborn/lib/python2.7/site-packages/matplotlib/mpl-data/fonts/pdfcorefonts/Symbol.afm
p1286
aV/home/nils/Arbeit/seaborn/lib/python2.7/site-packages/matplotlib/mpl-data/fonts/pdfcorefonts/Times-Roman.afm
p1287
aV/home/nils/Arbeit/seaborn/lib/python2.7/site-packages/matplotlib/mpl-data/fonts/afm/ptmri8a.afm
p1288
aV/home/nils/Arbeit/seaborn/lib/python2.7/site-packages/matplotlib/mpl-data/fonts/afm/pagk8a.afm
p1289
aV/home/nils/Arbeit/seaborn/lib/python2.7/site-packages/matplotlib/mpl-data/fonts/afm/psyr.afm
p1290
aV/home/nils/Arbeit/seaborn/lib/python2.7/site-packages/matplotlib/mpl-data/fonts/pdfcorefonts/Times-BoldItalic.afm
p1291
aV/home/nils/Arbeit/seaborn/lib/python2.7/site-packages/matplotlib/mpl-data/fonts/afm/pagd8a.afm
p1292
aV/home/nils/Arbeit/seaborn/lib/python2.7/site-packages/matplotlib/mpl-data/fonts/pdfcorefonts/Helvetica-BoldOblique.afm
p1293
aV/home/nils/Arbeit/seaborn/lib/python2.7/site-packages/matplotlib/mpl-data/fonts/afm/pcrr8a.afm
p1294
aV/home/nils/Arbeit/seaborn/lib/python2.7/site-packages/matplotlib/mpl-data/fonts/afm/pagdo8a.afm
p1295
aV/home/nils/Arbeit/seaborn/lib/python2.7/site-packages/matplotlib/mpl-data/fonts/pdfcorefonts/ZapfDingbats.afm
p1296
aV/home/nils/Arbeit/seaborn/lib/python2.7/site-packages/matplotlib/mpl-data/fonts/afm/phvro8an.afm
p1297
aV/home/nils/Arbeit/seaborn/lib/python2.7/site-packages/matplotlib/mpl-data/fonts/afm/pplri8a.afm
p1298
aV/home/nils/Arbeit/seaborn/lib/python2.7/site-packages/matplotlib/mpl-data/fonts/afm/phvr8an.afm
p1299
aV/home/nils/Arbeit/seaborn/lib/python2.7/site-packages/matplotlib/mpl-data/fonts/afm/pncbi8a.afm
p1300
aV/home/nils/Arbeit/seaborn/lib/python2.7/site-packages/matplotlib/mpl-data/fonts/afm/putb8a.afm
p1301
aV/home/nils/Arbeit/seaborn/lib/python2.7/site-packages/matplotlib/mpl-data/fonts/afm/pzcmi8a.afm
p1302
aV/home/nils/Arbeit/seaborn/lib/python2.7/site-packages/matplotlib/mpl-data/fonts/pdfcorefonts/Times-Italic.afm
p1303
aV/home/nils/Arbeit/seaborn/lib/python2.7/site-packages/matplotlib/mpl-data/fonts/afm/phvro8a.afm
p1304
aV/home/nils/Arbeit/seaborn/lib/python2.7/site-packages/matplotlib/mpl-data/fonts/afm/ptmr8a.afm
p1305
aV/home/nils/Arbeit/seaborn/lib/python2.7/site-packages/matplotlib/mpl-data/fonts/afm/cmex10.afm
p1306
aV/home/nils/Arbeit/seaborn/lib/python2.7/site-packages/matplotlib/mpl-data/fonts/afm/pplr8a.afm
p1307
aV/home/nils/Arbeit/seaborn/lib/python2.7/site-packages/matplotlib/mpl-data/fonts/afm/phvb8an.afm
p1308
aV/home/nils/Arbeit/seaborn/lib/python2.7/site-packages/matplotlib/mpl-data/fonts/afm/pcrbo8a.afm
p1309
aV/home/nils/Arbeit/seaborn/lib/python2.7/site-packages/matplotlib/mpl-data/fonts/afm/putbi8a.afm
p1310
aV/home/nils/Arbeit/seaborn/lib/python2.7/site-packages/matplotlib/mpl-data/fonts/pdfcorefonts/Courier-Oblique.afm
p1311
aV/home/nils/Arbeit/seaborn/lib/python2.7/site-packages/matplotlib/mpl-data/fonts/afm/ptmb8a.afm
p1312
aV/home/nils/Arbeit/seaborn/lib/python2.7/site-packages/matplotlib/mpl-data/fonts/pdfcorefonts/Times-Bold.afm
p1313
aV/home/nils/Arbeit/seaborn/lib/python2.7/site-packages/matplotlib/mpl-data/fonts/afm/pplb8a.afm
p1314
aV/home/nils/Arbeit/seaborn/lib/python2.7/site-packages/matplotlib/mpl-data/fonts/pdfcorefonts/Courier-BoldOblique.afm
p1315
aV/home/nils/Arbeit/seaborn/lib/python2.7/site-packages/matplotlib/mpl-data/fonts/pdfcorefonts/Courier.afm
p1316
aV/home/nils/Arbeit/seaborn/lib/python2.7/site-packages/matplotlib/mpl-data/fonts/afm/phvr8a.afm
p1317
aV/home/nils/Arbeit/seaborn/lib/python2.7/site-packages/matplotlib/mpl-data/fonts/afm/pagko8a.afm
p1318
aV/home/nils/Arbeit/seaborn/lib/python2.7/site-packages/matplotlib/mpl-data/fonts/afm/phvlo8a.afm
p1319
aV/home/nils/Arbeit/seaborn/lib/python2.7/site-packages/matplotlib/mpl-data/fonts/afm/pbkl8a.afm
p1320
aV/home/nils/Arbeit/seaborn/lib/python2.7/site-packages/matplotlib/mpl-data/fonts/pdfcorefonts/Helvetica-Oblique.afm
p1321
aV/home/nils/Arbeit/seaborn/lib/python2.7/site-packages/matplotlib/mpl-data/fonts/afm/putri8a.afm
p1322
aV/home/nils/Arbeit/seaborn/lib/python2.7/site-packages/matplotlib/mpl-data/fonts/afm/pplbi8a.afm
p1323
aV/home/nils/Arbeit/seaborn/lib/python2.7/site-packages/matplotlib/mpl-data/fonts/afm/pncr8a.afm
p1324
aV/home/nils/Arbeit/seaborn/lib/python2.7/site-packages/matplotlib/mpl-data/fonts/afm/pbkdi8a.afm
p1325
aV/home/nils/Arbeit/seaborn/lib/python2.7/site-packages/matplotlib/mpl-data/fonts/afm/cmmi10.afm
p1326
aV/home/nils/Arbeit/seaborn/lib/python2.7/site-packages/matplotlib/mpl-data/fonts/afm/pncri8a.afm
p1327
aV/home/nils/Arbeit/seaborn/lib/python2.7/site-packages/matplotlib/mpl-data/fonts/afm/cmtt10.afm
p1328
aV/home/nils/Arbeit/seaborn/lib/python2.7/site-packages/matplotlib/mpl-data/fonts/afm/cmsy10.afm
p1329
aV/home/nils/Arbeit/seaborn/lib/python2.7/site-packages/matplotlib/mpl-data/fonts/pdfcorefonts/Helvetica.afm
p1330
aV/home/nils/Arbeit/seaborn/lib/python2.7/site-packages/matplotlib/mpl-data/fonts/afm/phvl8a.afm
p1331
aV/home/nils/Arbeit/seaborn/lib/python2.7/site-packages/matplotlib/mpl-data/fonts/afm/pzdr.afm
p1332
aV/home/nils/Arbeit/seaborn/lib/python2.7/site-packages/matplotlib/mpl-data/fonts/pdfcorefonts/Courier-Bold.afm
p1333
aV/home/nils/Arbeit/seaborn/lib/python2.7/site-packages/matplotlib/mpl-data/fonts/afm/pcrb8a.afm
p1334
aV/home/nils/Arbeit/seaborn/lib/python2.7/site-packages/matplotlib/mpl-data/fonts/afm/cmr10.afm
p1335
aV/home/nils/Arbeit/seaborn/lib/python2.7/site-packages/matplotlib/mpl-data/fonts/afm/phvbo8an.afm
p1336
aV/home/nils/Arbeit/seaborn/lib/python2.7/site-packages/matplotlib/mpl-data/fonts/afm/pbkd8a.afm
p1337
aV/home/nils/Arbeit/seaborn/lib/python2.7/site-packages/matplotlib/mpl-data/fonts/afm/putr8a.afm
p1338
aV/home/nils/Arbeit/seaborn/lib/python2.7/site-packages/matplotlib/mpl-data/fonts/afm/phvb8a.afm
p1339
aV/home/nils/Arbeit/seaborn/lib/python2.7/site-packages/matplotlib/mpl-data/fonts/afm/ptmbi8a.afm
p1340
aV/home/nils/Arbeit/seaborn/lib/python2.7/site-packages/matplotlib/mpl-data/fonts/afm/pbkli8a.afm
p1341
aV/home/nils/Arbeit/seaborn/lib/python2.7/site-packages/matplotlib/mpl-data/fonts/afm/phvbo8a.afm
p1342
asS'afmlist'
p1343
(lp1344
g1
(g8
g3
NtRp1345
(dp1346
g11
Vnormal
p1347
sg13
S'Helvetica'
p1348
sg15
I700
sg16
g1347
sg17
g1347
sg18
g1281
sg20
Vscalable
p1349
sbag1
(g8
g3
NtRp1350
(dp1351
g11
g1347
sg13
S'New Century Schoolbook'
p1352
sg15
I700
sg16
g1347
sg17
g1347
sg18
g1284
sg20
g1349
sbag1
(g8
g3
NtRp1353
(dp1354
g11
Vitalic
p1355
sg13
S'Courier'
p1356
sg15
I500
sg16
g1347
sg17
g1347
sg18
g1285
sg20
g1349
sbag1
(g8
g3
NtRp1357
(dp1358
g11
g1347
sg13
S'Symbol'
p1359
sg15
I500
sg16
g1347
sg17
g1347
sg18
g1286
sg20
g1349
sbag1
(g8
g3
NtRp1360
(dp1361
g11
g1347
sg13
S'Times'
p1362
sg15
I500
sg16
g1347
sg17
g1347
sg18
g1287
sg20
g1349
sbag1
(g8
g3
NtRp1363
(dp1364
g11
g1355
sg13
S'Times'
p1365
sg15
I500
sg16
g1347
sg17
g1347
sg18
g1288
sg20
g1349
sbag1
(g8
g3
NtRp1366
(dp1367
g11
g1347
sg13
S'ITC Avant Garde Gothic'
p1368
sg15
I400
sg16
g1347
sg17
g1347
sg18
g1289
sg20
g1349
sbag1
(g8
g3
NtRp1369
(dp1370
g11
g1347
sg13
S'Symbol'
p1371
sg15
I500
sg16
g1347
sg17
g1347
sg18
g1290
sg20
g1349
sbag1
(g8
g3
NtRp1372
(dp1373
g11
g1355
sg13
S'Times'
p1374
sg15
I700
sg16
g1347
sg17
g1347
sg18
g1291
sg20
g1349
sbag1
(g8
g3
NtRp1375
(dp1376
g11
g1347
sg13
S'ITC Avant Garde Gothic'
p1377
sg15
I600
sg16
g1347
sg17
g1347
sg18
g1292
sg20
g1349
sbag1
(g8
g3
NtRp1378
(dp1379
g11
g1355
sg13
S'Helvetica'
p1380
sg15
I700
sg16
g1347
sg17
g1347
sg18
g1293
sg20
g1349
sbag1
(g8
g3
NtRp1381
(dp1382
g11
g1347
sg13
S'Courier'
p1383
sg15
I500
sg16
g1347
sg17
g1347
sg18
g1294
sg20
g1349
sbag1
(g8
g3
NtRp1384
(dp1385
g11
g1355
sg13
S'ITC Avant Garde Gothic'
p1386
sg15
I600
sg16
g1347
sg17
g1347
sg18
g1295
sg20
g1349
sbag1
(g8
g3
NtRp1387
(dp1388
g11
g1347
sg13
S'ZapfDingbats'
p1389
sg15
I500
sg16
g1347
sg17
g1347
sg18
g1296
sg20
g1349
sbag1
(g8
g3
NtRp1390
(dp1391
g11
g1355
sg13
S'Helvetica'
p1392
sg15
I500
sg16
Vcondensed
p1393
sg17
g1347
sg18
g1297
sg20
g1349
sbag1
(g8
g3
NtRp1394
(dp1395
g11
g1355
sg13
S'Palatino'
p1396
sg15
I500
sg16
g1347
sg17
g1347
sg18
g1298
sg20
g1349
sbag1
(g8
g3
NtRp1397
(dp1398
g11
g1347
sg13
S'Helvetica'
p1399
sg15
I500
sg16
g1393
sg17
g1347
sg18
g1299
sg20
g1349
sbag1
(g8
g3
NtRp1400
(dp1401
g11
g1355
sg13
S'New Century Schoolbook'
p1402
sg15
I700
sg16
g1347
sg17
g1347
sg18
g1300
sg20
g1349
sbag1
(g8
g3
NtRp1403
(dp1404
g11
g1347
sg13
S'Utopia'
p1405
sg15
I700
sg16
g1347
sg17
g1347
sg18
g1301
sg20
g1349
sbag1
(g8
g3
NtRp1406
(dp1407
g11
g1355
sg13
S'ITC Zapf Chancery'
p1408
sg15
I500
sg16
g1347
sg17
g1347
sg18
g1302
sg20
g1349
sbag1
(g8
g3
NtRp1409
(dp1410
g11
g1355
sg13
S'Times'
p1411
sg15
I500
sg16
g1347
sg17
g1347
sg18
g1303
sg20
g1349
sbag1
(g8
g3
NtRp1412
(dp1413
g11
g1355
sg13
S'Helvetica'
p1414
sg15
I500
sg16
g1347
sg17
g1347
sg18
g1304
sg20
g1349
sbag1
(g8
g3
NtRp1415
(dp1416
g11
g1347
sg13
S'Times'
p1417
sg15
I500
sg16
g1347
sg17
g1347
sg18
g1305
sg20
g1349
sbag1
(g8
g3
NtRp1418
(dp1419
g11
g1347
sg13
S'Computer Modern'
p1420
sg15
I500
sg16
g1347
sg17
g1347
sg18
g1306
sg20
g1349
sbag1
(g8
g3
NtRp1421
(dp1422
g11
g1347
sg13
S'Palatino'
p1423
sg15
I500
sg16
g1347
sg17
g1347
sg18
g1307
sg20
g1349
sbag1
(g8
g3
NtRp1424
(dp1425
g11
g1347
sg13
S'Helvetica'
p1426
sg15
I700
sg16
g1393
sg17
g1347
sg18
g1308
sg20
g1349
sbag1
(g8
g3
NtRp1427
(dp1428
g11
g1355
sg13
S'Courier'
p1429
sg15
I700
sg16
g1347
sg17
g1347
sg18
g1309
sg20
g1349
sbag1
(g8
g3
NtRp1430
(dp1431
g11
g1355
sg13
S'Utopia'
p1432
sg15
I700
sg16
g1347
sg17
g1347
sg18
g1310
sg20
g1349
sbag1
(g8
g3
NtRp1433
(dp1434
g11
g1355
sg13
S'Courier'
p1435
sg15
I500
sg16
g1347
sg17
g1347
sg18
g1311
sg20
g1349
sbag1
(g8
g3
NtRp1436
(dp1437
g11
g1347
sg13
S'Times'
p1438
sg15
I700
sg16
g1347
sg17
g1347
sg18
g1312
sg20
g1349
sbag1
(g8
g3
NtRp1439
(dp1440
g11
g1347
sg13
S'Times'
p1441
sg15
I700
sg16
g1347
sg17
g1347
sg18
g1313
sg20
g1349
sbag1
(g8
g3
NtRp1442
(dp1443
g11
g1347
sg13
S'Palatino'
p1444
sg15
I700
sg16
g1347
sg17
g1347
sg18
g1314
sg20
g1349
sbag1
(g8
g3
NtRp1445
(dp1446
g11
g1355
sg13
S'Courier'
p1447
sg15
I700
sg16
g1347
sg17
g1347
sg18
g1315
sg20
g1349
sbag1
(g8
g3
NtRp1448
(dp1449
g11
g1347
sg13
S'Courier'
p1450
sg15
I500
sg16
g1347
sg17
g1347
sg18
g1316
sg20
g1349
sbag1
(g8
g3
NtRp1451
(dp1452
g11
g1347
sg13
S'Helvetica'
p1453
sg15
I500
sg16
g1347
sg17
g1347
sg18
g1317
sg20
g1349
sbag1
(g8
g3
NtRp1454
(dp1455
g11
g1355
sg13
S'ITC Avant Garde Gothic'
p1456
sg15
I400
sg16
g1347
sg17
g1347
sg18
g1318
sg20
g1349
sbag1
(g8
g3
NtRp1457
(dp1458
g11
g1355
sg13
S'Helvetica'
p1459
sg15
I200
sg16
g1347
sg17
g1347
sg18
g1319
sg20
g1349
sbag1
(g8
g3
NtRp1460
(dp1461
g11
g1347
sg13
S'ITC Bookman'
p1462
sg15
I200
sg16
g1347
sg17
g1347
sg18
g1320
sg20
g1349
sbag1
(g8
g3
NtRp1463
(dp1464
g11
g1355
sg13
S'Helvetica'
p1465
sg15
I500
sg16
g1347
sg17
g1347
sg18
g1321
sg20
g1349
sbag1
(g8
g3
NtRp1466
(dp1467
g11
g1355
sg13
S'Utopia'
p1468
sg15
I400
sg16
g1347
sg17
g1347
sg18
g1322
sg20
g1349
sbag1
(g8
g3
NtRp1469
(dp1470
g11
g1355
sg13
S'Palatino'
p1471
sg15
I700
sg16
g1347
sg17
g1347
sg18
g1323
sg20
g1349
sbag1
(g8
g3
NtRp1472
(dp1473
g11
g1347
sg13
S'New Century Schoolbook'
p1474
sg15
I500
sg16
g1347
sg17
g1347
sg18
g1324
sg20
g1349
sbag1
(g8
g3
NtRp1475
(dp1476
g11
g1355
sg13
S'ITC Bookman'
p1477
sg15
I600
sg16
g1347
sg17
g1347
sg18
g1325
sg20
g1349
sbag1
(g8
g3
NtRp1478
(dp1479
g11
g1355
sg13
S'Computer Modern'
p1480
sg15
I500
sg16
g1347
sg17
g1347
sg18
g1326
sg20
g1349
sbag1
(g8
g3
NtRp1481
(dp1482
g11
g1355
sg13
S'New Century Schoolbook'
p1483
sg15
I500
sg16
g1347
sg17
g1347
sg18
g1327
sg20
g1349
sbag1
(g8
g3
NtRp1484
(dp1485
g11
g1347
sg13
S'Computer Modern'
p1486
sg15
I500
sg16
g1347
sg17
g1347
sg18
g1328
sg20
g1349
sbag1
(g8
g3
NtRp1487
(dp1488
g11
g1355
sg13
S'Computer Modern'
p1489
sg15
I500
sg16
g1347
sg17
g1347
sg18
g1329
sg20
g1349
sbag1
(g8
g3
NtRp1490
(dp1491
g11
g1347
sg13
S'Helvetica'
p1492
sg15
I500
sg16
g1347
sg17
g1347
sg18
g1330
sg20
g1349
sbag1
(g8
g3
NtRp1493
(dp1494
g11
g1347
sg13
S'Helvetica'
p1495
sg15
I200
sg16
g1347
sg17
g1347
sg18
g1331
sg20
g1349
sbag1
(g8
g3
NtRp1496
(dp1497
g11
g1347
sg13
S'ITC Zapf Dingbats'
p1498
sg15
I500
sg16
g1347
sg17
g1347
sg18
g1332
sg20
g1349
sbag1
(g8
g3
NtRp1499
(dp1500
g11
g1347
sg13
S'Courier'
p1501
sg15
I700
sg16
g1347
sg17
g1347
sg18
g1333
sg20
g1349
sbag1
(g8
g3
NtRp1502
(dp1503
g11
g1347
sg13
S'Courier'
p1504
sg15
I700
sg16
g1347
sg17
g1347
sg18
g1334
sg20
g1349
sbag1
(g8
g3
NtRp1505
(dp1506
g11
g1347
sg13
S'Computer Modern'
p1507
sg15
I500
sg16
g1347
sg17
g1347
sg18
g1335
sg20
g1349
sbag1
(g8
g3
NtRp1508
(dp1509
g11
g1355
sg13
S'Helvetica'
p1510
sg15
I700
sg16
g1393
sg17
g1347
sg18
g1336
sg20
g1349
sbag1
(g8
g3
NtRp1511
(dp1512
g11
g1347
sg13
S'ITC Bookman'
p1513
sg15
I600
sg16
g1347
sg17
g1347
sg18
g1337
sg20
g1349
sbag1
(g8
g3
NtRp1514
(dp1515
g11
g1347
sg13
S'Utopia'
p1516
sg15
I400
sg16
g1347
sg17
g1347
sg18
g1338
sg20
g1349
sbag1
(g8
g3
NtRp1517
(dp1518
g11
g1347
sg13
S'Helvetica'
p1519
sg15
I700
sg16
g1347
sg17
g1347
sg18
g1339
sg20
g1349
sbag1
(g8
g3
NtRp1520
(dp1521
g11
g1355
sg13
S'Times'
p1522
sg15
I700
sg16
g1347
sg17
g1347
sg18
g1340
sg20
g1349
sbag1
(g8
g3
NtRp1523
(dp1524
g11
g1355
sg13
S'ITC Bookman'
p1525
sg15
I200
sg16
g1347
sg17
g1347
sg18
g1341
sg20
g1349
sbag1
(g8
g3
NtRp1526
(dp1527
g11
g1355
sg13
S'Helvetica'
p1528
sg15
I700
sg16
g1347
sg17
g1347
sg18
g1342
sg20
g1349
sbasb.